 BF2_FRAMWEORK

 Timestamp is 5b55fea8 (Mon Jul 23 21:43:28 2018)

 Preferred load address is 10000000

 Start         Length     Name                   Class
 0001:00000000 00066a4cH .text                   CODE
 0001:00066a50 000021b5H .text$x                 CODE
 0001:00068c10 00002327H .text$yc                CODE
 0001:0006af40 00002849H .text$yd                CODE
 0002:00000000 00000104H .CRT$XCA                DATA
 0002:00000104 0000010eH .CRT$XCC                DATA
 0002:00000214 000002d1H .CRT$XCU                DATA
 0002:000004e8 00000104H .CRT$XCZ                DATA
 0002:000005ec 00000104H .CRT$XIA                DATA
 0002:000006f0 00000118H .CRT$XIC                DATA
 0002:00000808 00000104H .CRT$XID                DATA
 0002:0000090c 00000104H .CRT$XIY                DATA
 0002:00000a10 00000104H .CRT$XIZ                DATA
 0002:00000b14 00000104H .CRT$XPA                DATA
 0002:00000c18 00000104H .CRT$XPX                DATA
 0002:00000d1c 00000104H .CRT$XPXA               DATA
 0002:00000e20 00000104H .CRT$XPZ                DATA
 0002:00000f24 00000104H .CRT$XTA                DATA
 0002:00001028 00000104H .CRT$XTB                DATA
 0002:0000112c 00000104H .CRT$XTZ                DATA
 0002:00001230 0001080dH .rdata                  DATA
 0002:00011a40 000001b5H .rdata$debug            DATA
 0002:00011bf8 00000ecaH .rdata$r                DATA
 0002:00012ac4 00000104H .rtc$IAA                DATA
 0002:00012bc8 00000104H .rtc$IZZ                DATA
 0002:00012ccc 00000104H .rtc$TAA                DATA
 0002:00012dd0 00000104H .rtc$TZZ                DATA
 0002:00012ed8 00002514H .xdata$x                DATA
 0002:000153f0 00000174H .edata                  DATA
 0003:00000000 00004752H .data                   DATA
 0003:00004760 00003988H .bss                    DATA
 0004:00000000 00000064H .idata$2                DATA
 0004:00000064 00000014H .idata$3                DATA
 0004:00000078 00000324H .idata$4                DATA
 0004:0000039c 00000324H .idata$5                DATA
 0004:000006c0 00000b40H .idata$6                DATA

  Address         Publics by Value              Rva+Base       Lib:Object

 0000:00000000       ___safe_se_handler_table   00000000     <absolute>
 0000:00000000       ___safe_se_handler_count   00000000     <absolute>
 0000:00000000       __except_list              00000000     <absolute>
 0000:00000000       ___ImageBase               10000000     <linker-defined>
 0001:00001be0       ??0bad_alloc@std@@QAE@PBD@Z 10002be0 f i dllmain.obj
 0001:00001c00       ??1bad_alloc@std@@UAE@XZ   10002c00 f i dllmain.obj
 0001:00001c10       ??_Ebad_alloc@std@@UAEPAXI@Z 10002c10 f i dllmain.obj
 0001:00001c10       ??_Gbad_alloc@std@@UAEPAXI@Z 10002c10 f i dllmain.obj
 0001:00001c40       ??2@YAPAXIPAX@Z            10002c40 f i dllmain.obj
 0001:00001c50       ??3@YAXPAX0@Z              10002c50 f i dllmain.obj
 0001:00001c60       ?assign@?$char_traits@D@std@@SAXAADABD@Z 10002c60 f i dllmain.obj
 0001:00001c70       ?compare@?$char_traits@D@std@@SAHPBD0I@Z 10002c70 f i dllmain.obj
 0001:00001d30       ?length@?$char_traits@D@std@@SAIPBD@Z 10002d30 f i dllmain.obj
 0001:00001d50       ?_Copy_s@?$char_traits@D@std@@SAPADPADIPBDI@Z 10002d50 f i dllmain.obj
 0001:00001d80       ?_Move_s@?$char_traits@D@std@@SAPADPADIPBDI@Z 10002d80 f i dllmain.obj
 0001:00001db0       ?assign@?$char_traits@D@std@@SAPADPADID@Z 10002db0 f i dllmain.obj
 0001:00001dd0       ?to_int_type@?$char_traits@D@std@@SAHABD@Z 10002dd0 f i dllmain.obj
 0001:00001de0       ?eq_int_type@?$char_traits@D@std@@SA_NABH0@Z 10002de0 f i dllmain.obj
 0001:00001e00       ?eof@?$char_traits@D@std@@SAHXZ 10002e00 f i dllmain.obj
 0001:00001e10       ??0_Iterator_base@std@@QAE@XZ 10002e10 f i dllmain.obj
 0001:00001e20       ?_Getctype@_Locinfo@std@@QBE?AU_Ctypevec@@XZ 10002e20 f i dllmain.obj
 0001:00001e60       ?_Getcvt@_Locinfo@std@@QBE?AU_Cvtvec@@XZ 10002e60 f i dllmain.obj
 0001:00001e80       ??0id@locale@std@@QAE@I@Z  10002e80 f i dllmain.obj
 0001:00001e90       ??Bid@locale@std@@QAEIXZ   10002e90 f i dllmain.obj
 0001:00001ee0       ?_Incref@facet@locale@std@@QAEXXZ 10002ee0 f i dllmain.obj
 0001:00001f20       ?_Decref@facet@locale@std@@QAEPAV123@XZ 10002f20 f i dllmain.obj
 0001:00001f70       ?_Register@facet@locale@std@@QAEXXZ 10002f70 f i dllmain.obj
 0001:00001f80       ??1facet@locale@std@@UAE@XZ 10002f80 f i dllmain.obj
 0001:00001f90       ??0facet@locale@std@@IAE@I@Z 10002f90 f i dllmain.obj
 0001:00001fb0       ??0locale@std@@QAE@XZ      10002fb0 f i dllmain.obj
 0001:00002000       ??0locale@std@@QAE@ABV01@@Z 10003000 f i dllmain.obj
 0001:00002050       ??1locale@std@@QAE@XZ      10003050 f i dllmain.obj
 0001:000020b0       ?_Getfacet@locale@std@@QBEPBVfacet@12@I@Z 100030b0 f i dllmain.obj
 0001:00002100       ??_Gfacet@locale@std@@UAEPAXI@Z 10003100 f i dllmain.obj
 0001:00002100       ??_Efacet@locale@std@@UAEPAXI@Z 10003100 f i dllmain.obj
 0001:00002130       ??0codecvt_base@std@@QAE@I@Z 10003130 f i dllmain.obj
 0001:00002150       ?always_noconv@codecvt_base@std@@QBE_NXZ 10003150 f i dllmain.obj
 0001:00002160       ??1codecvt_base@std@@UAE@XZ 10003160 f i dllmain.obj
 0001:00002170       ?do_always_noconv@codecvt_base@std@@MBE_NXZ 10003170 f i dllmain.obj
 0001:00002180       ?do_max_length@codecvt_base@std@@MBEHXZ 10003180 f i dllmain.obj
 0001:00002190       ?do_encoding@codecvt_base@std@@MBEHXZ 10003190 f i dllmain.obj
 0001:000021a0       ??_Gcodecvt_base@std@@UAEPAXI@Z 100031a0 f i dllmain.obj
 0001:000021a0       ??_Ecodecvt_base@std@@UAEPAXI@Z 100031a0 f i dllmain.obj
 0001:000021d0       ??0ctype_base@std@@QAE@I@Z 100031d0 f i dllmain.obj
 0001:000021f0       ??1ctype_base@std@@UAE@XZ  100031f0 f i dllmain.obj
 0001:00002200       ??_Gctype_base@std@@UAEPAXI@Z 10003200 f i dllmain.obj
 0001:00002200       ??_Ectype_base@std@@UAEPAXI@Z 10003200 f i dllmain.obj
 0001:00002230       ?widen@?$ctype@D@std@@QBEDD@Z 10003230 f i dllmain.obj
 0001:00002240       ?_Init@?$ctype@D@std@@IAEXABV_Locinfo@2@@Z 10003240 f i dllmain.obj
 0001:00002280       ?_Tidy@?$ctype@D@std@@IAEXXZ 10003280 f i dllmain.obj
 0001:000022b0       ?rdstate@ios_base@std@@QBEHXZ 100032b0 f i dllmain.obj
 0001:000022c0       ?good@ios_base@std@@QBE_NXZ 100032c0 f i dllmain.obj
 0001:000022d0       ?fail@ios_base@std@@QBE_NXZ 100032d0 f i dllmain.obj
 0001:000022e0       ?flags@ios_base@std@@QBEHXZ 100032e0 f i dllmain.obj
 0001:000022f0       ?width@ios_base@std@@QBEHXZ 100032f0 f i dllmain.obj
 0001:00002300       ?width@ios_base@std@@QAEHH@Z 10003300 f i dllmain.obj
 0001:00002310       ?getloc@ios_base@std@@QBE?AVlocale@2@XZ 10003310 f i dllmain.obj
 0001:00002360       ??1ios_base@std@@UAE@XZ    10003360 f i dllmain.obj
 0001:00002380       ??0ios_base@std@@IAE@XZ    10003380 f i dllmain.obj
 0001:00002390       ??_Gios_base@std@@UAEPAXI@Z 10003390 f i dllmain.obj
 0001:00002390       ??_Eios_base@std@@UAEPAXI@Z 10003390 f i dllmain.obj
 0001:000023d0       _fabsf                     100033d0 f i dllmain.obj
 0001:000023f0       _acosf                     100033f0 f i dllmain.obj
 0001:00002410       _asinf                     10003410 f i dllmain.obj
 0001:00002430       _atanf                     10003430 f i dllmain.obj
 0001:00002450       _atan2f                    10003450 f i dllmain.obj
 0001:00002470       _cosf                      10003470 f i dllmain.obj
 0001:00002490       _floorf                    10003490 f i dllmain.obj
 0001:000024c0       _sinf                      100034c0 f i dllmain.obj
 0001:000024e0       _sqrtf                     100034e0 f i dllmain.obj
 0001:00002500       _tanf                      10003500 f i dllmain.obj
 0001:00002520       ?acos@@YAMM@Z              10003520 f i dllmain.obj
 0001:00002540       ?atan@@YAMM@Z              10003540 f i dllmain.obj
 0001:00002560       ?atan2@@YAMMM@Z            10003560 f i dllmain.obj
 0001:00002580       ?cos@@YAMM@Z               10003580 f i dllmain.obj
 0001:000025a0       ?fabs@@YAMM@Z              100035a0 f i dllmain.obj
 0001:000025c0       ?floor@@YAMM@Z             100035c0 f i dllmain.obj
 0001:000025f0       ?sin@@YAMM@Z               100035f0 f i dllmain.obj
 0001:00002610       ?sqrt@@YAMM@Z              10003610 f i dllmain.obj
 0001:00002630       ??0D3DXVECTOR2@@QAE@XZ     10003630 f i dllmain.obj
 0001:00002640       ??0D3DXVECTOR3@@QAE@XZ     10003640 f i dllmain.obj
 0001:00002650       ??0D3DXMATRIX@@QAE@XZ      10003650 f i dllmain.obj
 0001:00002660       ??0D3DXCOLOR@@QAE@XZ       10003660 f i dllmain.obj
 0001:00002670       ??0D3DXVECTOR2@@QAE@MM@Z   10003670 f i dllmain.obj
 0001:00002690       ??0D3DXVECTOR3@@QAE@ABU_D3DVECTOR@@@Z 10003690 f i dllmain.obj
 0001:000026b0       ??0D3DXVECTOR3@@QAE@MMM@Z  100036b0 f i dllmain.obj
 0001:000026d0       ??BD3DXVECTOR3@@QAEPAMXZ   100036d0 f i dllmain.obj
 0001:000026e0       ??BD3DXVECTOR3@@QBEPBMXZ   100036e0 f i dllmain.obj
 0001:000026f0       ??YD3DXVECTOR3@@QAEAAU0@ABU0@@Z 100036f0 f i dllmain.obj
 0001:00002720       ??ZD3DXVECTOR3@@QAEAAU0@ABU0@@Z 10003720 f i dllmain.obj
 0001:00002750       ??XD3DXVECTOR3@@QAEAAU0@M@Z 10003750 f i dllmain.obj
 0001:00002780       ??HD3DXVECTOR3@@QBE?AU0@ABU0@@Z 10003780 f i dllmain.obj
 0001:000027b0       ??GD3DXVECTOR3@@QBE?AU0@ABU0@@Z 100037b0 f i dllmain.obj
 0001:000027e0       ??DD3DXVECTOR3@@QBE?AU0@M@Z 100037e0 f i dllmain.obj
 0001:00002810       ??BD3DXMATRIX@@QAEPAMXZ    10003810 f i dllmain.obj
 0001:00002820       ??0D3DXCOLOR@@QAE@K@Z      10003820 f i dllmain.obj
 0001:00002890       ??BD3DXCOLOR@@QBEKXZ       10003890 f i dllmain.obj
 0001:00002a50       ?D3DXVec3Length@@YAMPBUD3DXVECTOR3@@@Z 10003a50 f i dllmain.obj
 0001:00002a90       ?D3DXVec3Dot@@YAMPBUD3DXVECTOR3@@0@Z 10003a90 f i dllmain.obj
 0001:00002ac0       ?D3DXVec3Subtract@@YAPAUD3DXVECTOR3@@PAU1@PBU1@1@Z 10003ac0 f i dllmain.obj
 0001:00002af0       ??0CRayTest@@QAE@PAVCObject@@@Z 10003af0 f   dllmain.obj
 0001:00002b10       ?TestObject@CRayTest@@UAEEPAVCObject@@@Z 10003b10 f   dllmain.obj
 0001:00002b50       ?iGetMask@CRayTest@@UAEHXZ 10003b50 f   dllmain.obj
 0001:00002b60       ?function2@CRayTest@@UAEEH@Z 10003b60 f   dllmain.obj
 0001:00002b70       ?TestMaterial@CRayTest@@UAEEH@Z 10003b70 f   dllmain.obj
 0001:00002b80       ??_H@YGXPAXIHP6EPAX0@Z@Z   10003b80 f i dllmain.obj
 0001:00002bc0       ?ShadowedText@CDebugTextWriter@@QAEXHHKPAV?$basic_string@DU?$char_traits@D@std@@V?$allocator@D@2@@std@@@Z 10003bc0 f i dllmain.obj
 0001:00002c70       ?GetControlMap@@YAPAVCControlMap@@XZ 10003c70 f   dllmain.obj
 0001:00002cc0       ??0CDraw@@QAE@XZ           10003cc0 f i dllmain.obj
 0001:00002cd0       ?Reset@CDraw@@QAEXXZ       10003cd0 f   dllmain.obj
 0001:00002d60       ?Line@CDraw@@QAEXMMMMM_NK@Z 10003d60 f   dllmain.obj
 0001:00002e20       ?BoxFilled@CDraw@@QAEXMMMMK@Z 10003e20 f   dllmain.obj
 0001:00003100       ?Text@CDraw@@QAEXPADMMHPAUID3DXFont@@_NKK@Z 10004100 f   dllmain.obj
 0001:00003630       ?Sprite@CDraw@@QAEXPAUIDirect3DTexture9@@MMMMM@Z 10004630 f   dllmain.obj
 0001:000037d0       ?Font@CDraw@@QAE_NXZ       100047d0 f   dllmain.obj
 0001:00003800       ?AddFont@CDraw@@QAEXPADM_N1@Z 10004800 f   dllmain.obj
 0001:00003870       ?FontReset@CDraw@@QAEXXZ   10004870 f   dllmain.obj
 0001:000038d0       ?OnLostDevice@CDraw@@QAEXXZ 100048d0 f   dllmain.obj
 0001:00003910       ?WriteConsoleText@@YAXPBDHHK@Z 10004910 f   dllmain.obj
 0001:00003970       ?Textf@@YAXHHKPBDZZ        10004970 f   dllmain.obj
 0001:000039f0       ?MenuText@@YAXHHKPBDH@Z    100049f0 f   dllmain.obj
 0001:00003a80       ?DrawShadowText@@YAXHHKPAD@Z 10004a80 f   dllmain.obj
 0001:00003b20       ?DrawLine@@YAXHHHHK@Z      10004b20 f   dllmain.obj
 0001:00003bc0       ?DrawCircleLine@@YAXHHHHK@Z 10004bc0 f   dllmain.obj
 0001:00003c60       ?Circle@@YAXHHHHK@Z        10004c60 f   dllmain.obj
 0001:00003dd0       ?DrawFilledBox@@YAXHHHHK@Z 10004dd0 f   dllmain.obj
 0001:00003eb0       ?DrawEmptyBox@@YAXHHHHK@Z  10004eb0 f   dllmain.obj
 0001:00003f20       ?FilledBoxBordered@@YAXMMHHKK@Z 10004f20 f   dllmain.obj
 0001:00003fa0       ?FillRGB@@YAXHHHHKPAUIDirect3DDevice9@@@Z 10004fa0 f   dllmain.obj
 0001:00004080       ?DrawEmptyRect@@YAXPAUIDirect3DDevice9@@HHHHK@Z 10005080 f   dllmain.obj
 0001:000040f0       ?DrawFilledRectangle@@YAXHHHHK@Z 100050f0 f   dllmain.obj
 0001:00004170       ?DrawPoint@@YAXHHHHKPAUIDirect3DDevice9@@@Z 10005170 f   dllmain.obj
 0001:00004180       ?DrawXHair@@YAXPAUIDirect3DDevice9@@K@Z 10005180 f   dllmain.obj
 0001:000042e0       ?DrawXHair1@@YAXMMMMMK@Z   100052e0 f   dllmain.obj
 0001:000043a0       ?DrawXHair2@@YAXPAUIDirect3DDevice9@@K@Z 100053a0 f   dllmain.obj
 0001:00004520       ?DrawXHair3@@YAXPAUIDirect3DDevice9@@K@Z 10005520 f   dllmain.obj
 0001:00004870       ?DrawXHair4@@YAXPAUIDirect3DDevice9@@K@Z 10005870 f   dllmain.obj
 0001:00004ab0       ?DrawSnapLines@@YAXHHHHUD3DXCOLOR@@@Z 10005ab0 f   dllmain.obj
 0001:00004d10       ?DrawSkeleton@@YAXHHHHUD3DXCOLOR@@@Z 10005d10 f   dllmain.obj
 0001:00004f70       ?DrawBoxLines@@YAXHHHHUD3DXCOLOR@@@Z 10005f70 f   dllmain.obj
 0001:000051d0       ?PlayerBox@@YAXHHHHK@Z     100061d0 f   dllmain.obj
 0001:00005340       ?DrawHealthBar3@@YAXHHMHHKK@Z 10006340 f   dllmain.obj
 0001:000053f0       ??0menu@@QAE@XZ            100063f0 f   dllmain.obj
 0001:00005400       ?DrawMouse@menu@@QAEXXZ    10006400 f   dllmain.obj
 0001:00005460       ?AddTab@menu@@QAEXPADHHH@Z 10006460 f   dllmain.obj
 0001:00005580       ?AddCheck@menu@@QAEXPADHHH@Z 10006580 f   dllmain.obj
 0001:000056d0       ?AddItemWithValue@menu@@QAEXPADHH0H@Z 100066d0 f   dllmain.obj
 0001:000058e0       ?AddScroll@menu@@QAEXHHHH@Z 100068e0 f   dllmain.obj
 0001:000059e0       ?AddGroup@menu@@QAEXPADHHHHH@Z 100069e0 f   dllmain.obj
 0001:00005c00       ?ScrollBar_Value@menu@@QAEPAKH@Z 10006c00 f   dllmain.obj
 0001:00005c20       ?ShowMenu@menu@@QAEXXZ     10006c20 f   dllmain.obj
 0001:00005c60       ?MouseClick@menu@@QAEFH@Z  10006c60 f   dllmain.obj
 0001:00005c80       ?DrawBorders@menu@@QAEXXZ  10006c80 f   dllmain.obj
 0001:000064c0       ?DrawString@menu@@QAEXPADHHHHPAUID3DXFont@@@Z 100074c0 f   dllmain.obj
 0001:00006560       ?Box@menu@@QAEXHHHHK@Z     10007560 f   dllmain.obj
 0001:00006640       ?Rectangle@menu@@QAEXHHHHK@Z 10007640 f   dllmain.obj
 0001:000066d0       ?SwitchItems@menu@@QAEXXZ  100076d0 f   dllmain.obj
 0001:00006890       ?retCAimBone@menu@@QAEPADH@Z 10007890 f   dllmain.obj
 0001:000069e0       ?Message@tools@@QAEXPAD0@Z 100079e0 f   dllmain.obj
 0001:00006a00       ?WriteAsm@tools@@QAEXPAXPAEH@Z 10007a00 f   dllmain.obj
 0001:00006a60       ?WriteFunction@@YAXPAX0H@Z 10007a60 f   dllmain.obj
 0001:00006ab0       ?ConsoleReturnFunction@@YAPAKH@Z 10007ab0 f   dllmain.obj
 0001:00006b00       ?MsgProc@@YGJPAUHWND__@@IIJ@Z 10007b00 f   dllmain.obj
 0001:00006b10       ?DX_Init@@YAXPAPAUIDirect3DDevice9@@@Z 10007b10 f   dllmain.obj
 0001:00006c40       ?InitDirInput@@YA_NPAUHINSTANCE__@@@Z 10007c40 f   dllmain.obj
 0001:00006c70       ?MouseThread@@YAXXZ        10007c70 f   dllmain.obj
 0001:00006ce0       ?SetLocalPlayer@@YA_NXZ    10007ce0 f   dllmain.obj
 0001:00007000       ?HookVTable@@YAKPAKKH@Z    10008000 f   dllmain.obj
 0001:000070a0       ?FindPattern@@YAKKKPAEQAD@Z 100080a0 f   dllmain.obj
 0001:00007120       ?getBFClassManager@@YAPAVCClassManager@@XZ 10008120 f   dllmain.obj
 0001:000071b0       ?GetModuleSize@@YAKK@Z     100081b0 f   dllmain.obj
 0001:000072a0       ?hkGetActionBuffer@@YAPAVCActionBuffer@@XZ 100082a0 f   dllmain.obj
 0001:00007310       ?hkGetPlayerView@@YGPAUD3DXMATRIX@@H@Z 10008310 f   dllmain.obj
 0001:00007390       ?VMTPatch@@YAKPAKHK@Z      10008390 f   dllmain.obj
 0001:00007410       ?ApplyTeamSwitch@@YAXH@Z   10008410 f   dllmain.obj
 0001:000074c0       ?iWrite@@YAHKPAXK@Z        100084c0 f   dllmain.obj
 0001:00007520       ?RemoveFOG@@YAXXZ          10008520 f   dllmain.obj
 0001:000075a0       ?RestoreFOG@@YAXXZ         100085a0 f   dllmain.obj
 0001:00007620       ?RemoveTVStatic@@YAXXZ     10008620 f   dllmain.obj
 0001:00007690       ?RestoreTVStatic@@YAXXZ    10008690 f   dllmain.obj
 0001:00007700       ?MiniMapEnable@@YAXXZ      10008700 f   dllmain.obj
 0001:00007910       ?MiniMapDisable@@YAXXZ     10008910 f   dllmain.obj
 0001:00007b20       ?WeaponUnlocksOn@@YAXXZ    10008b20 f   dllmain.obj
 0001:00007be0       ?WeaponUnlocksOff@@YAXXZ   10008be0 f   dllmain.obj
 0001:00007ca0       ?Enable3DMap@@YAXXZ        10008ca0 f   dllmain.obj
 0001:00007d10       ?Disable3DMap@@YAXXZ       10008d10 f   dllmain.obj
 0001:00007d80       ?EnemyMinesOn@@YAXXZ       10008d80 f   dllmain.obj
 0001:00007df0       ?EnemyMinesOff@@YAXXZ      10008df0 f   dllmain.obj
 0001:00007e60       ?RBIconsOn@@YAXXZ          10008e60 f   dllmain.obj
 0001:00007ed0       ?RBIconsOff@@YAXXZ         10008ed0 f   dllmain.obj
 0001:00007f40       ?EnableDrawFPS@@YAXXZ      10008f40 f   dllmain.obj
 0001:00007f70       ?DisableDrawFPS@@YAXXZ     10008f70 f   dllmain.obj
 0001:00007fa0       ?ViewDistanceOn@@YAXXZ     10008fa0 f   dllmain.obj
 0001:00008010       ?ViewDistanceOff@@YAXXZ    10009010 f   dllmain.obj
 0001:00008080       ?fPanelFullMaker@@YAXXZ    10009080 f   dllmain.obj
 0001:00008120       ?Intersect@@YAPAVCObject@@PAV1@PAUD3DXVECTOR3@@1@Z 10009120 f   dllmain.obj
 0001:000081b0       ?DrawABFOV@@YAXXZ          100091b0 f   dllmain.obj
 0001:000082c0       ?GetLocalBonePos@@YA_NPAUD3DXVECTOR3@@HPAVCPlayer@@@Z 100092c0 f   dllmain.obj
 0001:00008380       ?GetBonePos@@YAHPAVCPlayer@@0PAUD3DXVECTOR3@@H@Z 10009380 f   dllmain.obj
 0001:00008420       ?GetBoneOrigin@@YAPAUD3DXVECTOR3@@HPAU1@PAVCPlayer@@@Z 10009420 f   dllmain.obj
 0001:000084c0       ?IsVisible@@YA_NPAVCPlayer@@PAUD3DXVECTOR3@@1@Z 100094c0 f   dllmain.obj
 0001:00008890       ?World2Screen@@YA_NUD3DXVECTOR3@@MM@Z 10009890 f   dllmain.obj
 0001:00008a50       ?WorldToScreen@@YAPAUD3DXVECTOR3@@PAU1@0@Z 10009a50 f   dllmain.obj
 0001:00008cf0       ?gWorldToScreen@@YG_NPAUD3DXVECTOR3@@@Z 10009cf0 f   dllmain.obj
 0001:00008d00       ?IsValidPlayer@@YA_NPAVCPlayer@@@Z 10009d00 f   dllmain.obj
 0001:00008d40       ?CompDev@@YAXPAUD3DXVECTOR3@@@Z 10009d40 f   dllmain.obj
 0001:00009120       ?AimCorrection@@YA?AUD3DXVECTOR3@@U1@00MMM@Z 1000a120 f   dllmain.obj
 0001:000092a0       ?CalcFutureTargetPosition@@YANNPAUD3DXVECTOR3@@000@Z 1000a2a0 f i dllmain.obj
 0001:00009390       ?CalculateBallisticTime@@YANNNPAN@Z 1000a390 f i dllmain.obj
 0001:00009460       ?CalculateMissileTime@@YANNN@Z 1000a460 f i dllmain.obj
 0001:00009470       ?AutoClick@@YAXXZ          1000a470 f   dllmain.obj
 0001:00009550       ?GetDistanceToEnemy@@YAMPAVCPlayer@@@Z 1000a550 f   dllmain.obj
 0001:00009620       ?GetYDistance@@YAMPAVCPlayer@@0@Z 1000a620 f   dllmain.obj
 0001:00009660       ?Get2DDistance@@YAMPAUD3DXVECTOR3@@@Z 1000a660 f   dllmain.obj
 0001:00009710       ?VectorAngles@@YAXPBMPAM@Z 1000a710 f   dllmain.obj
 0001:00009870       ?GetTargetDistance@@YAMUD3DXVECTOR3@@0@Z 1000a870 f   dllmain.obj
 0001:000098c0       ?AngleVectors@@YAXUD3DXVECTOR3@@U1@11@Z 1000a8c0 f   dllmain.obj
 0001:000099a0       ?SoldierAngleToPix@@YAXPAM0MM@Z 1000a9a0 f   dllmain.obj
 0001:00009a70       ?VecToAngles@@YAXUD3DXVECTOR3@@U1@@Z 1000aa70 f   dllmain.obj
 0001:00009a80       ?getDistFromCrosshair@@YAMPAVCPlayer@@@Z 1000aa80 f   dllmain.obj
 0001:00009be0       ?isJET@@YAHH@Z             1000abe0 f   dllmain.obj
 0001:00009bf0       ?isHeli@@YAHH@Z            1000abf0 f   dllmain.obj
 0001:00009cf0       ?isAirVeh@@YAHH@Z          1000acf0 f   dllmain.obj
 0001:00009d00       ?IsUsingGernadeLN@@YA_NPAVCPlayer@@@Z 1000ad00 f   dllmain.obj
 0001:00009d50       ?IsUsingGernade@@YA_NPAVCPlayer@@@Z 1000ad50 f   dllmain.obj
 0001:00009da0       ?IsUsingTankCN@@YA_NPAVCPlayer@@@Z 1000ada0 f   dllmain.obj
 0001:00009e10       ?Refresh@@YAHXZ            1000ae10 f   dllmain.obj
 0001:0000a230       ?CalculateAimVector@@YAHPAUD3DXVECTOR3@@PAVCPhysics@@@Z 1000b230 f   dllmain.obj
 0001:0000a6a0       ?CalculateBullet@@YAHPAUD3DXVECTOR3@@PAVCPhysics@@@Z 1000b6a0 f   dllmain.obj
 0001:0000aac0       ?GetAimVector@@YAHPAUD3DXVECTOR3@@PAVCPlayer@@@Z 1000bac0 f   dllmain.obj
 0001:0000ae60       ?GetAimBone@@YAHPAVCPlayer@@0PAUD3DXVECTOR3@@@Z 1000be60 f   dllmain.obj
 0001:0000afa0       ?ClosestToCrosshair@@YAHH@Z 1000bfa0 f   dllmain.obj
 0001:0000b310       ?GetTarget@@YAPAVCPlayer@@XZ 1000c310 f   dllmain.obj
 0001:0000baf0       ?aimtvtarget@@YAXXZ        1000caf0 f   dllmain.obj
 0001:0000bfa0       ?Testf@@YAXXZ              1000cfa0 f   dllmain.obj
 0001:0000c0e0       ?DefaultAim@@YAXXZ         1000d0e0 f   dllmain.obj
 0001:0000c6c0       ?KnifeySpooney@@YAXXZ      1000d6c0 f   dllmain.obj
 0001:0000cab0       ?ValidWeapon@@YA_NXZ       1000dab0 f   dllmain.obj
 0001:0000cb10       ?Radarfunc@@YAXHHHHK@Z     1000db10 f   dllmain.obj
 0001:0000ce50       ?Radar@@YAXHHHH@Z          1000de50 f   dllmain.obj
 0001:0000cec0       ?drawBones@@YAXPAVCPlayer@@UD3DXCOLOR@@@Z 1000dec0 f   dllmain.obj
 0001:0000d3f0       ?drawLines@@YAXPAVCPlayer@@0PAVCSkeleton@@@Z 1000e3f0 f   dllmain.obj
 0001:0000d5a0       ?DisplayWarning@@YAXHM@Z   1000e5a0 f   dllmain.obj
 0001:0000d730       ?draw3DBoxes@@YAXPAVCPlayer@@0UD3DXCOLOR@@@Z 1000e730 f   dllmain.obj
 0001:0000de60       ?drawBoxes@@YAXPAVCPlayer@@0UD3DXCOLOR@@@Z 1000ee60 f   dllmain.obj
 0001:0000e170       ??0CIniReader@@QAE@PAD@Z   1000f170 f   dllmain.obj
 0001:0000e1c0       ?ReadInteger@CIniReader@@QAEHPAD0H@Z 1000f1c0 f   dllmain.obj
 0001:0000e1e0       ?ReadFloat@CIniReader@@QAEMPAD0M@Z 1000f1e0 f   dllmain.obj
 0001:0000e2a0       ?ReadBoolean@CIniReader@@QAE_NPAD0_N@Z 1000f2a0 f   dllmain.obj
 0001:0000e390       ??0CIniWriter@@QAE@PAD@Z   1000f390 f   dllmain.obj
 0001:0000e3e0       ?WriteInteger@CIniWriter@@QAEXPAD0H@Z 1000f3e0 f   dllmain.obj
 0001:0000e470       ?WriteFloat@CIniWriter@@QAEXPAD0M@Z 1000f470 f   dllmain.obj
 0001:0000e500       ?WriteBoolean@CIniWriter@@QAEXPAD0_N@Z 1000f500 f   dllmain.obj
 0001:0000e5a0       ?writesettings@@YAXXZ      1000f5a0 f   dllmain.obj
 0001:0000edf0       ?readsettings@@YAXXZ       1000fdf0 f   dllmain.obj
 0001:0000f5f0       ?ItsAimTime@@YAXXZ         100105f0 f   dllmain.obj
 0001:0000f840       ?myGWTPID@@YGHPAUHWND__@@PAK@Z 10010840 f   dllmain.obj
 0001:0000f890       ?length@?$basic_string@DU?$char_traits@D@std@@V?$allocator@D@2@@std@@QBEIXZ 10010890 f i dllmain.obj
 0001:0000f8a0       ?size@?$basic_string@DU?$char_traits@D@std@@V?$allocator@D@2@@std@@QBEIXZ 100108a0 f i dllmain.obj
 0001:0000f8b0       ??0?$allocator@D@std@@QAE@XZ 100108b0 f i dllmain.obj
 0001:0000f8c0       ?deallocate@?$allocator@D@std@@QAEXPADI@Z 100108c0 f i dllmain.obj
 0001:0000f8e0       ?max_size@?$allocator@D@std@@QBEIXZ 100108e0 f i dllmain.obj
 0001:0000f8f0       ??1?$basic_ostream@DU?$char_traits@D@std@@@std@@UAE@XZ 100108f0 f i dllmain.obj
 0001:0000f910       ??6?$basic_ostream@DU?$char_traits@D@std@@@std@@QAEAAV01@P6AAAV01@AAV01@@Z@Z 10010910 f i dllmain.obj
 0001:0000f920       ??1?$basic_ios@DU?$char_traits@D@std@@@std@@UAE@XZ 10010920 f i dllmain.obj
 0001:0000f940       ?rdbuf@?$basic_ios@DU?$char_traits@D@std@@@std@@QBEPAV?$basic_streambuf@DU?$char_traits@D@std@@@2@XZ 10010940 f i dllmain.obj
 0001:0000f950       ??0?$pair@PAVCObject@@H@std@@QAE@ABQAVCObject@@ABH@Z 10010950 f i dllmain.obj
 0001:0000f970       ??_Glocale@std@@QAEPAXI@Z  10010970 f i dllmain.obj
 0001:0000f9f0       ??_D?$basic_ostream@DU?$char_traits@D@std@@@std@@QAEXXZ 100109f0 f i dllmain.obj
 0001:0000fa20       ?_Myptr@?$basic_string@DU?$char_traits@D@std@@V?$allocator@D@2@@std@@IBEPBDXZ 10010a20 f i dllmain.obj
 0001:0000fa40       ??0?$allocator@D@std@@QAE@ABV01@@Z 10010a40 f i dllmain.obj
 0001:0000fa50       ?fill@?$basic_ios@DU?$char_traits@D@std@@@std@@QBEDXZ 10010a50 f i dllmain.obj
 0001:0000fa60       ??0?$basic_ios@DU?$char_traits@D@std@@@std@@IAE@XZ 10010a60 f i dllmain.obj
 0001:0000fa70       ??_G?$basic_ios@DU?$char_traits@D@std@@@std@@UAEPAXI@Z 10010a70 f i dllmain.obj
 0001:0000fa70       ??_E?$basic_ios@DU?$char_traits@D@std@@@std@@UAEPAXI@Z 10010a70 f i dllmain.obj
 0001:0000fab0       ?pubsync@?$basic_streambuf@DU?$char_traits@D@std@@@std@@QAEHXZ 10010ab0 f i dllmain.obj
 0001:0000fac0       ?_Unlock@?$basic_streambuf@DU?$char_traits@D@std@@@std@@QAEXXZ 10010ac0 f i dllmain.obj
 0001:0000fad0       ?eback@?$basic_streambuf@DU?$char_traits@D@std@@@std@@IBEPADXZ 10010ad0 f i dllmain.obj
 0001:0000fae0       ?gptr@?$basic_streambuf@DU?$char_traits@D@std@@@std@@IBEPADXZ 10010ae0 f i dllmain.obj
 0001:0000faf0       ?pptr@?$basic_streambuf@DU?$char_traits@D@std@@@std@@IBEPADXZ 10010af0 f i dllmain.obj
 0001:0000fb00       ?egptr@?$basic_streambuf@DU?$char_traits@D@std@@@std@@IBEPADXZ 10010b00 f i dllmain.obj
 0001:0000fb10       ?setg@?$basic_streambuf@DU?$char_traits@D@std@@@std@@IAEXPAD00@Z 10010b10 f i dllmain.obj
 0001:0000fb40       ?epptr@?$basic_streambuf@DU?$char_traits@D@std@@@std@@IBEPADXZ 10010b40 f i dllmain.obj
 0001:0000fb50       ?_Pninc@?$basic_streambuf@DU?$char_traits@D@std@@@std@@IAEPADXZ 10010b50 f i dllmain.obj
 0001:0000fb70       ?_Pnavail@?$basic_streambuf@DU?$char_traits@D@std@@@std@@IBEHXZ 10010b70 f i dllmain.obj
 0001:0000fb90       ?size@?$vector@Uvertex@@V?$allocator@Uvertex@@@std@@@std@@QBEIXZ 10010b90 f i dllmain.obj
 0001:0000fbc0       ??0?$allocator@Uvertex@@@std@@QAE@XZ 10010bc0 f i dllmain.obj
 0001:0000fbd0       ?_Color@?$_Tree@V?$_Tmap_traits@PAVCObject@@HU?$less@PAVCObject@@@std@@V?$allocator@U?$pair@QAVCObject@@H@std@@@3@$0A@@std@@@std@@KAAADPAU_Node@?$_Tree_nod@V?$_Tmap_traits@PAVCObject@@HU?$less@PAVCObject@@@std@@V?$allocator@U?$pair@QAVCObject@@H@std@@@3@$0A@@std@@@2@@Z 10010bd0 f i dllmain.obj
 0001:0000fbe0       ?_Isnil@?$_Tree@V?$_Tmap_traits@PAVCObject@@HU?$less@PAVCObject@@@std@@V?$allocator@U?$pair@QAVCObject@@H@std@@@3@$0A@@std@@@std@@KAAADPAU_Node@?$_Tree_nod@V?$_Tmap_traits@PAVCObject@@HU?$less@PAVCObject@@@std@@V?$allocator@U?$pair@QAVCObject@@H@std@@@3@$0A@@std@@@2@@Z 10010be0 f i dllmain.obj
 0001:0000fbf0       ?_Left@?$_Tree@V?$_Tmap_traits@PAVCObject@@HU?$less@PAVCObject@@@std@@V?$allocator@U?$pair@QAVCObject@@H@std@@@3@$0A@@std@@@std@@KAAAPAU_Node@?$_Tree_nod@V?$_Tmap_traits@PAVCObject@@HU?$less@PAVCObject@@@std@@V?$allocator@U?$pair@QAVCObject@@H@std@@@3@$0A@@std@@@2@PAU342@@Z 10010bf0 f i dllmain.obj
 0001:0000fc00       ?_Parent@?$_Tree@V?$_Tmap_traits@PAVCObject@@HU?$less@PAVCObject@@@std@@V?$allocator@U?$pair@QAVCObject@@H@std@@@3@$0A@@std@@@std@@KAAAPAU_Node@?$_Tree_nod@V?$_Tmap_traits@PAVCObject@@HU?$less@PAVCObject@@@std@@V?$allocator@U?$pair@QAVCObject@@H@std@@@3@$0A@@std@@@2@PAU342@@Z 10010c00 f i dllmain.obj
 0001:0000fc10       ?_Right@?$_Tree@V?$_Tmap_traits@PAVCObject@@HU?$less@PAVCObject@@@std@@V?$allocator@U?$pair@QAVCObject@@H@std@@@3@$0A@@std@@@std@@KAAAPAU_Node@?$_Tree_nod@V?$_Tmap_traits@PAVCObject@@HU?$less@PAVCObject@@@std@@V?$allocator@U?$pair@QAVCObject@@H@std@@@3@$0A@@std@@@2@PAU342@@Z 10010c10 f i dllmain.obj
 0001:0000fc20       ?_Lmost@?$_Tree@V?$_Tmap_traits@PAVCObject@@HU?$less@PAVCObject@@@std@@V?$allocator@U?$pair@QAVCObject@@H@std@@@3@$0A@@std@@@std@@IBEAAPAU_Node@?$_Tree_nod@V?$_Tmap_traits@PAVCObject@@HU?$less@PAVCObject@@@std@@V?$allocator@U?$pair@QAVCObject@@H@std@@@3@$0A@@std@@@2@XZ 10010c20 f i dllmain.obj
 0001:0000fc30       ?_Max@?$_Tree@V?$_Tmap_traits@PAVCObject@@HU?$less@PAVCObject@@@std@@V?$allocator@U?$pair@QAVCObject@@H@std@@@3@$0A@@std@@@std@@KAPAU_Node@?$_Tree_nod@V?$_Tmap_traits@PAVCObject@@HU?$less@PAVCObject@@@std@@V?$allocator@U?$pair@QAVCObject@@H@std@@@3@$0A@@std@@@2@PAU342@@Z 10010c30 f i dllmain.obj
 0001:0000fc60       ?_Min@?$_Tree@V?$_Tmap_traits@PAVCObject@@HU?$less@PAVCObject@@@std@@V?$allocator@U?$pair@QAVCObject@@H@std@@@3@$0A@@std@@@std@@KAPAU_Node@?$_Tree_nod@V?$_Tmap_traits@PAVCObject@@HU?$less@PAVCObject@@@std@@V?$allocator@U?$pair@QAVCObject@@H@std@@@3@$0A@@std@@@2@PAU342@@Z 10010c60 f i dllmain.obj
 0001:0000fc90       ?_Rmost@?$_Tree@V?$_Tmap_traits@PAVCObject@@HU?$less@PAVCObject@@@std@@V?$allocator@U?$pair@QAVCObject@@H@std@@@3@$0A@@std@@@std@@IBEAAPAU_Node@?$_Tree_nod@V?$_Tmap_traits@PAVCObject@@HU?$less@PAVCObject@@@std@@V?$allocator@U?$pair@QAVCObject@@H@std@@@3@$0A@@std@@@2@XZ 10010c90 f i dllmain.obj
 0001:0000fca0       ?_Root@?$_Tree@V?$_Tmap_traits@PAVCObject@@HU?$less@PAVCObject@@@std@@V?$allocator@U?$pair@QAVCObject@@H@std@@@3@$0A@@std@@@std@@IBEAAPAU_Node@?$_Tree_nod@V?$_Tmap_traits@PAVCObject@@HU?$less@PAVCObject@@@std@@V?$allocator@U?$pair@QAVCObject@@H@std@@@3@$0A@@std@@@2@XZ 10010ca0 f i dllmain.obj
 0001:0000fcb0       ?_Rrotate@?$_Tree@V?$_Tmap_traits@PAVCObject@@HU?$less@PAVCObject@@@std@@V?$allocator@U?$pair@QAVCObject@@H@std@@@3@$0A@@std@@@std@@IAEXPAU_Node@?$_Tree_nod@V?$_Tmap_traits@PAVCObject@@HU?$less@PAVCObject@@@std@@V?$allocator@U?$pair@QAVCObject@@H@std@@@3@$0A@@std@@@2@@Z 10010cb0 f i dllmain.obj
 0001:0000fd20       ?_Kfn@?$_Tmap_traits@PAVCObject@@HU?$less@PAVCObject@@@std@@V?$allocator@U?$pair@QAVCObject@@H@std@@@3@$0A@@std@@SAABQAVCObject@@ABU?$pair@QAVCObject@@H@2@@Z 10010d20 f i dllmain.obj
 0001:0000fd30       ??0?$allocator@U?$pair@QAVCObject@@H@std@@@std@@QAE@XZ 10010d30 f i dllmain.obj
 0001:0000fd40       ??R?$less@PAVCObject@@@std@@QBE_NABQAVCObject@@0@Z 10010d40 f i dllmain.obj
 0001:0000fd60       ?deallocate@?$allocator@U_Node@?$_Tree_nod@V?$_Tmap_traits@PAVCObject@@HU?$less@PAVCObject@@@std@@V?$allocator@U?$pair@QAVCObject@@H@std@@@3@$0A@@std@@@std@@@std@@QAEXPAU_Node@?$_Tree_nod@V?$_Tmap_traits@PAVCObject@@HU?$less@PAVCObject@@@std@@V?$allocator@U?$pair@QAVCObject@@H@std@@@3@$0A@@std@@@2@I@Z 10010d60 f i dllmain.obj
 0001:0000fd80       ??0?$pair@Viterator@?$_Tree@V?$_Tmap_traits@PAVCObject@@HU?$less@PAVCObject@@@std@@V?$allocator@U?$pair@QAVCObject@@H@std@@@3@$0A@@std@@@std@@_N@std@@QAE@ABViterator@?$_Tree@V?$_Tmap_traits@PAVCObject@@HU?$less@PAVCObject@@@std@@V?$allocator@U?$pair@QAVCObject@@H@std@@@3@$0A@@std@@@1@AB_N@Z 10010d80 f i dllmain.obj
 0001:0000fdb0       ??8const_iterator@?$_Tree@V?$_Tmap_traits@PAVCObject@@HU?$less@PAVCObject@@@std@@V?$allocator@U?$pair@QAVCObject@@H@std@@@3@$0A@@std@@@std@@QBE_NABV012@@Z 10010db0 f i dllmain.obj
 0001:0000fdf0       ?_Mynode@const_iterator@?$_Tree@V?$_Tmap_traits@PAVCObject@@HU?$less@PAVCObject@@@std@@V?$allocator@U?$pair@QAVCObject@@H@std@@@3@$0A@@std@@@std@@QBEPAU_Node@?$_Tree_nod@V?$_Tmap_traits@PAVCObject@@HU?$less@PAVCObject@@@std@@V?$allocator@U?$pair@QAVCObject@@H@std@@@3@$0A@@std@@@3@XZ 10010df0 f i dllmain.obj
 0001:0000fe00       ??Bsentry@?$basic_ostream@DU?$char_traits@D@std@@@std@@QBE_NXZ 10010e00 f i dllmain.obj
 0001:0000fe10       ?put@?$num_put@DV?$ostreambuf_iterator@DU?$char_traits@D@std@@@std@@@std@@QBE?AV?$ostreambuf_iterator@DU?$char_traits@D@std@@@2@V32@AAVios_base@2@DJ@Z 10010e10 f i dllmain.obj
 0001:0000fe60       ?put@?$num_put@DV?$ostreambuf_iterator@DU?$char_traits@D@std@@@std@@@std@@QBE?AV?$ostreambuf_iterator@DU?$char_traits@D@std@@@2@V32@AAVios_base@2@DK@Z 10010e60 f i dllmain.obj
 0001:0000feb0       ?put@?$num_put@DV?$ostreambuf_iterator@DU?$char_traits@D@std@@@std@@@std@@QBE?AV?$ostreambuf_iterator@DU?$char_traits@D@std@@@2@V32@AAVios_base@2@DPBX@Z 10010eb0 f i dllmain.obj
 0001:0000ff00       ?failed@?$ostreambuf_iterator@DU?$char_traits@D@std@@@std@@QBE_NXZ 10010f00 f i dllmain.obj
 0001:0000ff10       ??0?$_Iterator_with_base@Uoutput_iterator_tag@std@@XXXXU_Iterator_base@2@@std@@QAE@XZ 10010f10 f i dllmain.obj
 0001:0000ff20       ?_Myptr@?$basic_string@DU?$char_traits@D@std@@V?$allocator@D@2@@std@@IAEPADXZ 10010f20 f i dllmain.obj
 0001:0000ff40       ?tie@?$basic_ios@DU?$char_traits@D@std@@@std@@QBEPAV?$basic_ostream@DU?$char_traits@D@std@@@2@XZ 10010f40 f i dllmain.obj
 0001:0000ff50       ?getloc@?$basic_streambuf@DU?$char_traits@D@std@@@std@@QBE?AVlocale@2@XZ 10010f50 f i dllmain.obj
 0001:0000ffa0       ?_Lock@?$basic_streambuf@DU?$char_traits@D@std@@@std@@QAEXXZ 10010fa0 f i dllmain.obj
 0001:0000ffb0       ?_Init@?$basic_streambuf@DU?$char_traits@D@std@@@std@@IAEXPAPAD0PAH001@Z 10010fb0 f i dllmain.obj
 0001:0000fff0       ??0?$allocator@Uvertex@@@std@@QAE@ABV01@@Z 10010ff0 f i dllmain.obj
 0001:00010000       ?deallocate@?$allocator@Uvertex@@@std@@QAEXPAUvertex@@I@Z 10011000 f i dllmain.obj
 0001:00010020       ?_Myval@?$_Tree@V?$_Tmap_traits@PAVCObject@@HU?$less@PAVCObject@@@std@@V?$allocator@U?$pair@QAVCObject@@H@std@@@3@$0A@@std@@@std@@KAAAU?$pair@QAVCObject@@H@2@PAU_Node@?$_Tree_nod@V?$_Tmap_traits@PAVCObject@@HU?$less@PAVCObject@@@std@@V?$allocator@U?$pair@QAVCObject@@H@std@@@3@$0A@@std@@@2@@Z 10011020 f i dllmain.obj
 0001:00010030       ??0?$allocator@U?$pair@QAVCObject@@H@std@@@std@@QAE@ABV01@@Z 10011030 f i dllmain.obj
 0001:00010040       ??Dconst_iterator@?$_Tree@V?$_Tmap_traits@PAVCObject@@HU?$less@PAVCObject@@@std@@V?$allocator@U?$pair@QAVCObject@@H@std@@@3@$0A@@std@@@std@@QBEABU?$pair@QAVCObject@@H@2@XZ 10011040 f i dllmain.obj
 0001:00010070       ??0_Sentry_base@?$basic_ostream@DU?$char_traits@D@std@@@std@@QAE@AAV12@@Z 10011070 f i dllmain.obj
 0001:000100a0       ??1_Sentry_base@?$basic_ostream@DU?$char_traits@D@std@@@std@@QAE@XZ 100110a0 f i dllmain.obj
 0001:000100c0       ??D?$_String_const_iterator@DU?$char_traits@D@std@@V?$allocator@D@2@@std@@QBEABDXZ 100110c0 f i dllmain.obj
 0001:00010110       ?unshift@?$codecvt@DDH@std@@QBEHAAHPAD1AAPAD@Z 10011110 f i dllmain.obj
 0001:00010120       ??0?$_Bidit@U?$pair@QAVCObject@@H@std@@HPBU12@ABU12@@std@@QAE@XZ 10011120 f i dllmain.obj
 0001:00010130       ?max_size@?$basic_string@DU?$char_traits@D@std@@V?$allocator@D@2@@std@@QBEIXZ 10011130 f i dllmain.obj
 0001:00010140       ?_Inside@?$basic_string@DU?$char_traits@D@std@@V?$allocator@D@2@@std@@IAE_NPBD@Z 10011140 f i dllmain.obj
 0001:00010190       ?setp@?$basic_streambuf@DU?$char_traits@D@std@@@std@@IAEXPAD0@Z 10011190 f i dllmain.obj
 0001:000101c0       ?max_size@?$allocator@U?$pair@QAVCObject@@H@std@@@std@@QBEIXZ 100111c0 f i dllmain.obj
 0001:000101d0       ?_Dec@const_iterator@?$_Tree@V?$_Tmap_traits@PAVCObject@@HU?$less@PAVCObject@@@std@@V?$allocator@U?$pair@QAVCObject@@H@std@@@3@$0A@@std@@@std@@QAEXXZ 100111d0 f i dllmain.obj
 0001:00010280       ?_Inc@const_iterator@?$_Tree@V?$_Tmap_traits@PAVCObject@@HU?$less@PAVCObject@@@std@@V?$allocator@U?$pair@QAVCObject@@H@std@@@3@$0A@@std@@@std@@QAEXXZ 10011280 f i dllmain.obj
 0001:00010300       ??0_Node@?$_Tree_nod@V?$_Tmap_traits@PAVCObject@@HU?$less@PAVCObject@@@std@@V?$allocator@U?$pair@QAVCObject@@H@std@@@3@$0A@@std@@@std@@QAE@PAU012@00ABU?$pair@QAVCObject@@H@2@D@Z 10011300 f i dllmain.obj
 0001:00010340       ??0?$_Ranit_base@DHPBDABDU_Iterator_base@std@@@std@@QAE@XZ 10011340 f i dllmain.obj
 0001:00010350       ?max_size@?$allocator@Uvertex@@@std@@QBEIXZ 10011350 f i dllmain.obj
 0001:00010360       ??0?$_Tmap_traits@PAVCObject@@HU?$less@PAVCObject@@@std@@V?$allocator@U?$pair@QAVCObject@@H@std@@@3@$0A@@std@@QAE@U?$less@PAVCObject@@@1@@Z 10011360 f i dllmain.obj
 0001:00010370       ??$_Pow_int@M@@YAMMH@Z     10011370 f i dllmain.obj
 0001:000103d0       ??$vsprintf_s@$0EAA@@@YAHAAY0EAA@DPBDPAD@Z 100113d0 f i dllmain.obj
 0001:00010400       ??$sprintf_s@$0FA@@@YAHAAY0FA@DPBDZZ 10011400 f i dllmain.obj
 0001:00010420       ??$sprintf_s@$0BAA@@@YAHAAY0BAA@DPBDZZ 10011420 f i dllmain.obj
 0001:00010450       ??$?0PAVCObject@@H@?$pair@QAVCObject@@H@std@@QAE@ABU?$pair@PAVCObject@@H@1@@Z 10011450 f i dllmain.obj
 0001:00010470       ??$_Allocate@D@std@@YAPADIPAD@Z 10011470 f i dllmain.obj
 0001:000104e0       ??$swap@D@std@@YAXAAD0@Z   100114e0 f i dllmain.obj
 0001:00010500       ??$_Destroy@U_Node@?$_Tree_nod@V?$_Tmap_traits@PAVCObject@@HU?$less@PAVCObject@@@std@@V?$allocator@U?$pair@QAVCObject@@H@std@@@3@$0A@@std@@@std@@@std@@YAXPAU_Node@?$_Tree_nod@V?$_Tmap_traits@PAVCObject@@HU?$less@PAVCObject@@@std@@V?$allocator@U?$pair@QAVCObject@@H@std@@@3@$0A@@std@@@0@@Z 10011500 f i dllmain.obj
 0001:00010510       ??$_Destroy@PAU_Node@?$_Tree_nod@V?$_Tmap_traits@PAVCObject@@HU?$less@PAVCObject@@@std@@V?$allocator@U?$pair@QAVCObject@@H@std@@@3@$0A@@std@@@std@@@std@@YAXPAPAU_Node@?$_Tree_nod@V?$_Tmap_traits@PAVCObject@@HU?$less@PAVCObject@@@std@@V?$allocator@U?$pair@QAVCObject@@H@std@@@3@$0A@@std@@@0@@Z 10011510 f i dllmain.obj
 0001:00010520       ??$_Allocate@Uvertex@@@std@@YAPAUvertex@@IPAU1@@Z 10011520 f i dllmain.obj
 0001:000105a0       ??$?0U?$pair@QAVCObject@@H@std@@@?$allocator@PAU_Node@?$_Tree_nod@V?$_Tmap_traits@PAVCObject@@HU?$less@PAVCObject@@@std@@V?$allocator@U?$pair@QAVCObject@@H@std@@@3@$0A@@std@@@std@@@std@@QAE@ABV?$allocator@U?$pair@QAVCObject@@H@std@@@1@@Z 100115a0 f i dllmain.obj
 0001:000105b0       ??$_Allocate@U_Node@?$_Tree_nod@V?$_Tmap_traits@PAVCObject@@HU?$less@PAVCObject@@@std@@V?$allocator@U?$pair@QAVCObject@@H@std@@@3@$0A@@std@@@std@@@std@@YAPAU_Node@?$_Tree_nod@V?$_Tmap_traits@PAVCObject@@HU?$less@PAVCObject@@@std@@V?$allocator@U?$pair@QAVCObject@@H@std@@@3@$0A@@std@@@0@IPAU120@@Z 100115b0 f i dllmain.obj
 0001:00010630       ??$?0U?$pair@QAVCObject@@H@std@@@?$allocator@U_Node@?$_Tree_nod@V?$_Tmap_traits@PAVCObject@@HU?$less@PAVCObject@@@std@@V?$allocator@U?$pair@QAVCObject@@H@std@@@3@$0A@@std@@@std@@@std@@QAE@ABV?$allocator@U?$pair@QAVCObject@@H@std@@@1@@Z 10011630 f i dllmain.obj
 0001:00010640       ??$_Construct@PAU_Node@?$_Tree_nod@V?$_Tmap_traits@PAVCObject@@HU?$less@PAVCObject@@@std@@V?$allocator@U?$pair@QAVCObject@@H@std@@@3@$0A@@std@@@std@@PAU123@@std@@YAXPAPAU_Node@?$_Tree_nod@V?$_Tmap_traits@PAVCObject@@HU?$less@PAVCObject@@@std@@V?$allocator@U?$pair@QAVCObject@@H@std@@@3@$0A@@std@@@0@ABQAU120@@Z 10011640 f i dllmain.obj
 0001:00010660       ??0bad_alloc@std@@QAE@ABV01@@Z 10011660 f i dllmain.obj
 0001:00010680       ?sputn@?$basic_streambuf@DU?$char_traits@D@std@@@std@@QAEHPBDH@Z 10011680 f i dllmain.obj
 0001:00010690       ?pbase@?$basic_streambuf@DU?$char_traits@D@std@@@std@@IBEPADXZ 10011690 f i dllmain.obj
 0001:000106a0       ?setp@?$basic_streambuf@DU?$char_traits@D@std@@@std@@IAEXPAD00@Z 100116a0 f i dllmain.obj
 0001:000106d0       ?put@?$num_put@DV?$ostreambuf_iterator@DU?$char_traits@D@std@@@std@@@std@@QBE?AV?$ostreambuf_iterator@DU?$char_traits@D@std@@@2@V32@AAVios_base@2@DN@Z 100116d0 f i dllmain.obj
 0001:00010720       ?_Tidy@?$basic_stringbuf@DU?$char_traits@D@std@@V?$allocator@D@2@@std@@IAEXXZ 10011720 f i dllmain.obj
 0001:00010790       ?_Init@?$num_put@DV?$ostreambuf_iterator@DU?$char_traits@D@std@@@std@@@std@@IAEXABV_Locinfo@2@@Z 10011790 f i dllmain.obj
 0001:000107b0       ?_Init@?$codecvt@DDH@std@@IAEXABV_Locinfo@2@@Z 100117b0 f i dllmain.obj
 0001:000107c0       ?_Getstate@?$basic_stringbuf@DU?$char_traits@D@std@@V?$allocator@D@2@@std@@AAEHH@Z 100117c0 f i dllmain.obj
 0001:00010800       ??$_Char_traits_cat@U?$char_traits@D@std@@@std@@YA?AU_Secure_char_traits_tag@0@XZ 10011800 f i dllmain.obj
 0001:00010810       ??$copy_s@U?$char_traits@D@std@@@_Traits_helper@std@@YAPADPADIPBDIU_Secure_char_traits_tag@1@@Z 10011810 f i dllmain.obj
 0001:00010840       ??$move_s@U?$char_traits@D@std@@@_Traits_helper@std@@YAPADPADIPBDIU_Secure_char_traits_tag@1@@Z 10011840 f i dllmain.obj
 0001:00010870       ??$_Ptr_cat@PAUvertex@@PAU1@@std@@YA?AU_Nonscalar_ptr_iterator_tag@0@AAPAUvertex@@0@Z 10011870 f i dllmain.obj
 0001:00010880       ??$_Construct@Uvertex@@U1@@std@@YAXPAUvertex@@ABU1@@Z 10011880 f i dllmain.obj
 0001:000108c0       ??$_Destroy@Uvertex@@@std@@YAXPAUvertex@@@Z 100118c0 f i dllmain.obj
 0001:000108d0       ?pow@@YAMMH@Z              100118d0 f i dllmain.obj
 0001:000108f0       ?Box@CDraw@@QAEXMMMMMK@Z   100118f0 f   dllmain.obj
 0001:00010b70       ?BoxBordered@CDraw@@QAEXMMMMMKK@Z 10011b70 f   dllmain.obj
 0001:00010c30       ?DrawString@@YAXHHKPBD@Z   10011c30 f   dllmain.obj
 0001:00010d10       ?ScrollBar@menu@@QAEPAKHHHH@Z 10011d10 f   dllmain.obj
 0001:00010ea0       ?SelectionButton@menu@@QAEXPAPADHHH@Z 10011ea0 f   dllmain.obj
 0001:00011140       ?ComboList@menu@@QAEXPAPADHHHHH@Z 10012140 f   dllmain.obj
 0001:00011720       ?SelectionReturn@menu@@QAEPAKHHHH@Z 10012720 f   dllmain.obj
 0001:000117f0       ?ReturnFunction@menu@@QAEPAKHHH@Z 100127f0 f   dllmain.obj
 0001:00011890       ?BuildMenuTab1@@YAXXZ      10012890 f   dllmain.obj
 0001:00011e50       ?BuildMenuTab2@@YAXXZ      10012e50 f   dllmain.obj
 0001:00012110       ?BuildMenuTab3@@YAXXZ      10013110 f   dllmain.obj
 0001:000125d0       ?BuildMenuTab4@@YAXXZ      100135d0 f   dllmain.obj
 0001:00012a90       ?BuildMenuTab5@@YAXXZ      10013a90 f   dllmain.obj
 0001:00013050       ?BuildMenuTab6@@YAXXZ      10014050 f   dllmain.obj
 0001:00013590       ?BuildMenuTab7@@YAXXZ      10014590 f   dllmain.obj
 0001:00013bc0       ?BuildMenuTabSelect@@YAXXZ 10014bc0 f   dllmain.obj
 0001:000142a0       ?BuildMenu@@YAXXZ          100152a0 f   dllmain.obj
 0001:00015b80       ?CreateMyShader@@YAJPAUIDirect3DDevice9@@PAPAUIDirect3DPixelShader9@@MMMM@Z 10016b80 f   dllmain.obj
 0001:00015c90       ?WorldToMap@@YAHPAUD3DXVECTOR3@@@Z 10016c90 f   dllmain.obj
 0001:000160a0       ?GetXDistance@@YAMPAVCPlayer@@0@Z 100170a0 f   dllmain.obj
 0001:00016190       ?CorrectAimLead@@YAMUD3DXVECTOR3@@0MMM@Z 10017190 f   dllmain.obj
 0001:00016380       ?hkDrawOverlay@@YGXXZ      10017380 f   dllmain.obj
 0001:00016450       ?c_str@?$basic_string@DU?$char_traits@D@std@@V?$allocator@D@2@@std@@QBEPBDXZ 10017450 f i dllmain.obj
 0001:00016470       ?allocate@?$allocator@D@std@@QAEPADI@Z 10017470 f i dllmain.obj
 0001:00016490       ??1?$basic_streambuf@DU?$char_traits@D@std@@@std@@UAE@XZ 10017490 f i dllmain.obj
 0001:00016520       ?to_char_type@?$char_traits@D@std@@SADABH@Z 10017520 f i dllmain.obj
 0001:00016530       ?overflow@?$basic_streambuf@DU?$char_traits@D@std@@@std@@MAEHH@Z 10017530 f i dllmain.obj
 0001:00016540       ?pbackfail@?$basic_streambuf@DU?$char_traits@D@std@@@std@@MAEHH@Z 10017540 f i dllmain.obj
 0001:00016550       ?showmanyc@?$basic_streambuf@DU?$char_traits@D@std@@@std@@MAEHXZ 10017550 f i dllmain.obj
 0001:00016560       ?underflow@?$basic_streambuf@DU?$char_traits@D@std@@@std@@MAEHXZ 10017560 f i dllmain.obj
 0001:00016570       ?xsgetn@?$basic_streambuf@DU?$char_traits@D@std@@@std@@MAEHPADH@Z 10017570 f i dllmain.obj
 0001:00016590       ?setbuf@?$basic_streambuf@DU?$char_traits@D@std@@@std@@MAEPAV12@PADH@Z 10017590 f i dllmain.obj
 0001:000165a0       ?sync@?$basic_streambuf@DU?$char_traits@D@std@@@std@@MAEHXZ 100175a0 f i dllmain.obj
 0001:000165b0       ?imbue@?$basic_streambuf@DU?$char_traits@D@std@@@std@@MAEXABVlocale@2@@Z 100175b0 f i dllmain.obj
 0001:000165c0       ?gbump@?$basic_streambuf@DU?$char_traits@D@std@@@std@@IAEXH@Z 100175c0 f i dllmain.obj
 0001:000165e0       ?_Gninc@?$basic_streambuf@DU?$char_traits@D@std@@@std@@IAEPADXZ 100175e0 f i dllmain.obj
 0001:00016600       ?_Gnavail@?$basic_streambuf@DU?$char_traits@D@std@@@std@@IBEHXZ 10017600 f i dllmain.obj
 0001:00016620       ?pbump@?$basic_streambuf@DU?$char_traits@D@std@@@std@@IAEXH@Z 10017620 f i dllmain.obj
 0001:00016640       ??0?$fpos@H@std@@QAE@J@Z   10017640 f i dllmain.obj
 0001:00016660       ?uflow@?$basic_streambuf@DU?$char_traits@D@std@@@std@@MAEHXZ 10017660 f i dllmain.obj
 0001:000166a0       ?seekoff@?$basic_streambuf@DU?$char_traits@D@std@@@std@@MAE?AV?$fpos@H@2@JHH@Z 100176a0 f i dllmain.obj
 0001:000166c0       ?seekpos@?$basic_streambuf@DU?$char_traits@D@std@@@std@@MAE?AV?$fpos@H@2@V32@H@Z 100176c0 f i dllmain.obj
 0001:000166e0       ??A?$vector@Uvertex@@V?$allocator@Uvertex@@@std@@@std@@QAEAAUvertex@@I@Z 100176e0 f i dllmain.obj
 0001:00016730       ??9const_iterator@?$_Tree@V?$_Tmap_traits@PAVCObject@@HU?$less@PAVCObject@@@std@@V?$allocator@U?$pair@QAVCObject@@H@std@@@3@$0A@@std@@@std@@QBE_NABV012@@Z 10017730 f i dllmain.obj
 0001:00016770       ??_G?$basic_ostream@DU?$char_traits@D@std@@@std@@UAEPAXI@Z 10017770 f i dllmain.obj
 0001:00016770       ??_E?$basic_ostream@DU?$char_traits@D@std@@@std@@UAEPAXI@Z 10017770 f i dllmain.obj
 0001:000167c0       ??_E?$basic_streambuf@DU?$char_traits@D@std@@@std@@UAEPAXI@Z 100177c0 f i dllmain.obj
 0001:000167c0       ??_G?$basic_streambuf@DU?$char_traits@D@std@@@std@@UAEPAXI@Z 100177c0 f i dllmain.obj
 0001:000167f0       ?compare@?$basic_string@DU?$char_traits@D@std@@V?$allocator@D@2@@std@@QBEHIIPBDI@Z 100177f0 f i dllmain.obj
 0001:00016880       ??0?$_String_val@DV?$allocator@D@std@@@std@@IAE@V?$allocator@D@1@@Z 10017880 f i dllmain.obj
 0001:00016890       ?sputc@?$basic_streambuf@DU?$char_traits@D@std@@@std@@QAEHD@Z 10017890 f i dllmain.obj
 0001:000168e0       ??0?$_Vector_val@Uvertex@@V?$allocator@Uvertex@@@std@@@std@@IAE@V?$allocator@Uvertex@@@1@@Z 100178e0 f i dllmain.obj
 0001:000168f0       ?_Key@?$_Tree@V?$_Tmap_traits@PAVCObject@@HU?$less@PAVCObject@@@std@@V?$allocator@U?$pair@QAVCObject@@H@std@@@3@$0A@@std@@@std@@KAABQAVCObject@@PAU_Node@?$_Tree_nod@V?$_Tmap_traits@PAVCObject@@HU?$less@PAVCObject@@@std@@V?$allocator@U?$pair@QAVCObject@@H@std@@@3@$0A@@std@@@2@@Z 100178f0 f i dllmain.obj
 0001:00016900       ?_Lrotate@?$_Tree@V?$_Tmap_traits@PAVCObject@@HU?$less@PAVCObject@@@std@@V?$allocator@U?$pair@QAVCObject@@H@std@@@3@$0A@@std@@@std@@IAEXPAU_Node@?$_Tree_nod@V?$_Tmap_traits@PAVCObject@@HU?$less@PAVCObject@@@std@@V?$allocator@U?$pair@QAVCObject@@H@std@@@3@$0A@@std@@@2@@Z 10017900 f i dllmain.obj
 0001:00016970       ?destroy@?$allocator@U_Node@?$_Tree_nod@V?$_Tmap_traits@PAVCObject@@HU?$less@PAVCObject@@@std@@V?$allocator@U?$pair@QAVCObject@@H@std@@@3@$0A@@std@@@std@@@std@@QAEXPAU_Node@?$_Tree_nod@V?$_Tmap_traits@PAVCObject@@HU?$less@PAVCObject@@@std@@V?$allocator@U?$pair@QAVCObject@@H@std@@@3@$0A@@std@@@2@@Z 10017970 f i dllmain.obj
 0001:00016980       ??Diterator@?$_Tree@V?$_Tmap_traits@PAVCObject@@HU?$less@PAVCObject@@@std@@V?$allocator@U?$pair@QAVCObject@@H@std@@@3@$0A@@std@@@std@@QBEAAU?$pair@QAVCObject@@H@2@XZ 10017980 f i dllmain.obj
 0001:000169b0       ??D?$_String_iterator@DU?$char_traits@D@std@@V?$allocator@D@2@@std@@QBEAADXZ 100179b0 f i dllmain.obj
 0001:00016a00       ??0?$_Outit_with_base@U_Iterator_base@std@@@std@@QAE@XZ 10017a00 f i dllmain.obj
 0001:00016a10       ?_Chassign@?$basic_string@DU?$char_traits@D@std@@V?$allocator@D@2@@std@@IAEXIID@Z 10017a10 f i dllmain.obj
 0001:00016a80       ?_Eos@?$basic_string@DU?$char_traits@D@std@@V?$allocator@D@2@@std@@IAEXI@Z 10017a80 f i dllmain.obj
 0001:00016ab0       ?_Init@?$basic_streambuf@DU?$char_traits@D@std@@@std@@IAEXXZ 10017ab0 f i dllmain.obj
 0001:00016b20       ?max_size@?$_Tree@V?$_Tmap_traits@PAVCObject@@HU?$less@PAVCObject@@@std@@V?$allocator@U?$pair@QAVCObject@@H@std@@@3@$0A@@std@@@std@@QBEIXZ 10017b20 f i dllmain.obj
 0001:00016b30       ?destroy@?$allocator@PAU_Node@?$_Tree_nod@V?$_Tmap_traits@PAVCObject@@HU?$less@PAVCObject@@@std@@V?$allocator@U?$pair@QAVCObject@@H@std@@@3@$0A@@std@@@std@@@std@@QAEXPAPAU_Node@?$_Tree_nod@V?$_Tmap_traits@PAVCObject@@HU?$less@PAVCObject@@@std@@V?$allocator@U?$pair@QAVCObject@@H@std@@@3@$0A@@std@@@2@@Z 10017b30 f i dllmain.obj
 0001:00016b40       ??0const_iterator@?$_Tree@V?$_Tmap_traits@PAVCObject@@HU?$less@PAVCObject@@@std@@V?$allocator@U?$pair@QAVCObject@@H@std@@@3@$0A@@std@@@std@@QAE@PAU_Node@?$_Tree_nod@V?$_Tmap_traits@PAVCObject@@HU?$less@PAVCObject@@@std@@V?$allocator@U?$pair@QAVCObject@@H@std@@@3@$0A@@std@@@2@PBV12@@Z 10017b40 f i dllmain.obj
 0001:00016b70       ??Econst_iterator@?$_Tree@V?$_Tmap_traits@PAVCObject@@HU?$less@PAVCObject@@@std@@V?$allocator@U?$pair@QAVCObject@@H@std@@@3@$0A@@std@@@std@@QAEAAV012@XZ 10017b70 f i dllmain.obj
 0001:00016b80       ??Fconst_iterator@?$_Tree@V?$_Tmap_traits@PAVCObject@@HU?$less@PAVCObject@@@std@@V?$allocator@U?$pair@QAVCObject@@H@std@@@3@$0A@@std@@@std@@QAEAAV012@XZ 10017b80 f i dllmain.obj
 0001:00016b90       ?max_size@?$vector@Uvertex@@V?$allocator@Uvertex@@@std@@@std@@QBEIXZ 10017b90 f i dllmain.obj
 0001:00016ba0       ?allocate@?$allocator@Uvertex@@@std@@QAEPAUvertex@@I@Z 10017ba0 f i dllmain.obj
 0001:00016bc0       ?allocate@?$allocator@U_Node@?$_Tree_nod@V?$_Tmap_traits@PAVCObject@@HU?$less@PAVCObject@@@std@@V?$allocator@U?$pair@QAVCObject@@H@std@@@3@$0A@@std@@@std@@@std@@QAEPAU_Node@?$_Tree_nod@V?$_Tmap_traits@PAVCObject@@HU?$less@PAVCObject@@@std@@V?$allocator@U?$pair@QAVCObject@@H@std@@@3@$0A@@std@@@2@I@Z 10017bc0 f i dllmain.obj
 0001:00016be0       ??0?$_String_const_iterator@DU?$char_traits@D@std@@V?$allocator@D@2@@std@@QAE@PBDPBU_Container_base@1@@Z 10017be0 f i dllmain.obj
 0001:00016c50       ?_Erase@?$_Tree@V?$_Tmap_traits@PAVCObject@@HU?$less@PAVCObject@@@std@@V?$allocator@U?$pair@QAVCObject@@H@std@@@3@$0A@@std@@@std@@IAEXPAU_Node@?$_Tree_nod@V?$_Tmap_traits@PAVCObject@@HU?$less@PAVCObject@@@std@@V?$allocator@U?$pair@QAVCObject@@H@std@@@3@$0A@@std@@@2@@Z 10017c50 f i dllmain.obj
 0001:00016ca0       ??0?$_Tree_nod@V?$_Tmap_traits@PAVCObject@@HU?$less@PAVCObject@@@std@@V?$allocator@U?$pair@QAVCObject@@H@std@@@3@$0A@@std@@@std@@IAE@ABU?$less@PAVCObject@@@1@V?$allocator@U?$pair@QAVCObject@@H@std@@@1@@Z 10017ca0 f i dllmain.obj
 0001:00016cb0       ?construct@?$allocator@PAU_Node@?$_Tree_nod@V?$_Tmap_traits@PAVCObject@@HU?$less@PAVCObject@@@std@@V?$allocator@U?$pair@QAVCObject@@H@std@@@3@$0A@@std@@@std@@@std@@QAEXPAPAU_Node@?$_Tree_nod@V?$_Tmap_traits@PAVCObject@@HU?$less@PAVCObject@@@std@@V?$allocator@U?$pair@QAVCObject@@H@std@@@3@$0A@@std@@@2@ABQAU342@@Z 10017cb0 f i dllmain.obj
 0001:00016cd0       ??$copy_s@U?$char_traits@D@std@@@_Traits_helper@std@@YAPADPADIPBDI@Z 10017cd0 f i dllmain.obj
 0001:00016d00       ??$move_s@U?$char_traits@D@std@@@_Traits_helper@std@@YAPADPADIPBDI@Z 10017d00 f i dllmain.obj
 0001:00016d30       ??1?$basic_stringbuf@DU?$char_traits@D@std@@V?$allocator@D@2@@std@@UAE@XZ 10017d30 f i dllmain.obj
 0001:00016d50       ?eq@?$char_traits@D@std@@SA_NABD0@Z 10017d50 f i dllmain.obj
 0001:00016d70       ?not_eof@?$char_traits@D@std@@SAHABH@Z 10017d70 f i dllmain.obj
 0001:00016d90       ??B?$fpos@H@std@@QBEJXZ    10017d90 f i dllmain.obj
 0001:00016da0       ?pbackfail@?$basic_stringbuf@DU?$char_traits@D@std@@V?$allocator@D@2@@std@@MAEHH@Z 10017da0 f i dllmain.obj
 0001:00016e00       ?underflow@?$basic_stringbuf@DU?$char_traits@D@std@@V?$allocator@D@2@@std@@MAEHXZ 10017e00 f i dllmain.obj
 0001:00016e80       ?overflow@?$basic_stringbuf@DU?$char_traits@D@std@@V?$allocator@D@2@@std@@MAEHH@Z 10017e80 f i dllmain.obj
 0001:000170a0       ?seekoff@?$basic_stringbuf@DU?$char_traits@D@std@@V?$allocator@D@2@@std@@MAE?AV?$fpos@H@2@JHH@Z 100180a0 f i dllmain.obj
 0001:00017250       ?seekpos@?$basic_stringbuf@DU?$char_traits@D@std@@V?$allocator@D@2@@std@@MAE?AV?$fpos@H@2@V32@H@Z 10018250 f i dllmain.obj
 0001:00017350       ??_G?$basic_stringbuf@DU?$char_traits@D@std@@V?$allocator@D@2@@std@@UAEPAXI@Z 10018350 f i dllmain.obj
 0001:00017350       ??_E?$basic_stringbuf@DU?$char_traits@D@std@@V?$allocator@D@2@@std@@UAEPAXI@Z 10018350 f i dllmain.obj
 0001:00017390       ?_Init@?$basic_stringbuf@DU?$char_traits@D@std@@V?$allocator@D@2@@std@@IAEXPBDIH@Z 10018390 f i dllmain.obj
 0001:00017460       ?construct@?$allocator@Uvertex@@@std@@QAEXPAUvertex@@ABU3@@Z 10018460 f i dllmain.obj
 0001:000174a0       ?destroy@?$allocator@Uvertex@@@std@@QAEXPAUvertex@@@Z 100184a0 f i dllmain.obj
 0001:000174b0       ?EnemyIsAimingAtYou@@YAXPAVCPlayer@@@Z 100184b0 f   dllmain.obj
 0001:00017830       ?compare@?$basic_string@DU?$char_traits@D@std@@V?$allocator@D@2@@std@@QBEHABV12@@Z 10018830 f i dllmain.obj
 0001:00017870       ?compare@?$basic_string@DU?$char_traits@D@std@@V?$allocator@D@2@@std@@QBEHPBD@Z 10018870 f i dllmain.obj
 0001:000178b0       ?_Xsgetn_s@?$basic_streambuf@DU?$char_traits@D@std@@@std@@MAEHPADIH@Z 100188b0 f i dllmain.obj
 0001:00017970       ?xsputn@?$basic_streambuf@DU?$char_traits@D@std@@@std@@MAEHPBDH@Z 10018970 f i dllmain.obj
 0001:00017a30       ??Citerator@?$_Tree@V?$_Tmap_traits@PAVCObject@@HU?$less@PAVCObject@@@std@@V?$allocator@U?$pair@QAVCObject@@H@std@@@3@$0A@@std@@@std@@QBEPAU?$pair@QAVCObject@@H@2@XZ 10018a30 f i dllmain.obj
 0001:00017a60       ?erase@?$basic_string@DU?$char_traits@D@std@@V?$allocator@D@2@@std@@QAEAAV12@II@Z 10018a60 f i dllmain.obj
 0001:00017b10       ?_Tidy@?$basic_string@DU?$char_traits@D@std@@V?$allocator@D@2@@std@@IAEX_NI@Z 10018b10 f i dllmain.obj
 0001:00017b70       ?_Init@?$basic_filebuf@DU?$char_traits@D@std@@@std@@IAEXPAU_iobuf@@W4_Initfl@12@@Z 10018b70 f i dllmain.obj
 0001:00017be0       ?_Initcvt@?$basic_filebuf@DU?$char_traits@D@std@@@std@@IAEXPAV?$codecvt@DDH@2@@Z 10018be0 f i dllmain.obj
 0001:00017c20       ??0iterator@?$_Tree@V?$_Tmap_traits@PAVCObject@@HU?$less@PAVCObject@@@std@@V?$allocator@U?$pair@QAVCObject@@H@std@@@3@$0A@@std@@@std@@QAE@PAU_Node@?$_Tree_nod@V?$_Tmap_traits@PAVCObject@@HU?$less@PAVCObject@@@std@@V?$allocator@U?$pair@QAVCObject@@H@std@@@3@$0A@@std@@@2@PBV12@@Z 10018c20 f i dllmain.obj
 0001:00017c50       ??Eiterator@?$_Tree@V?$_Tmap_traits@PAVCObject@@HU?$less@PAVCObject@@@std@@V?$allocator@U?$pair@QAVCObject@@H@std@@@3@$0A@@std@@@std@@QAEAAV012@XZ 10018c50 f i dllmain.obj
 0001:00017c60       ??Fiterator@?$_Tree@V?$_Tmap_traits@PAVCObject@@HU?$less@PAVCObject@@@std@@V?$allocator@U?$pair@QAVCObject@@H@std@@@3@$0A@@std@@@std@@QAEAAV012@XZ 10018c60 f i dllmain.obj
 0001:00017c70       ??0?$ostreambuf_iterator@DU?$char_traits@D@std@@@std@@QAE@PAV?$basic_streambuf@DU?$char_traits@D@std@@@1@@Z 10018c70 f i dllmain.obj
 0001:00017c90       ??0?$basic_streambuf@DU?$char_traits@D@std@@@std@@IAE@XZ 10018c90 f i dllmain.obj
 0001:00017d60       ?_Buynode@?$_Tree@V?$_Tmap_traits@PAVCObject@@HU?$less@PAVCObject@@@std@@V?$allocator@U?$pair@QAVCObject@@H@std@@@3@$0A@@std@@@std@@IAEPAU_Node@?$_Tree_nod@V?$_Tmap_traits@PAVCObject@@HU?$less@PAVCObject@@@std@@V?$allocator@U?$pair@QAVCObject@@H@std@@@3@$0A@@std@@@2@PAU342@00ABU?$pair@QAVCObject@@H@2@D@Z 10018d60 f i dllmain.obj
 0001:00017db0       ??0?$_String_iterator@DU?$char_traits@D@std@@V?$allocator@D@2@@std@@QAE@PADPBU_Container_base@1@@Z 10018db0 f i dllmain.obj
 0001:00017dd0       ?_Copy@?$basic_string@DU?$char_traits@D@std@@V?$allocator@D@2@@std@@IAEXII@Z 10018dd0 f i dllmain.obj
 0001:00017f70       ?clear@?$_Tree@V?$_Tmap_traits@PAVCObject@@HU?$less@PAVCObject@@@std@@V?$allocator@U?$pair@QAVCObject@@H@std@@@3@$0A@@std@@@std@@QAEXXZ 10018f70 f i dllmain.obj
 0001:00017fb0       ?_Buynode@?$_Tree@V?$_Tmap_traits@PAVCObject@@HU?$less@PAVCObject@@@std@@V?$allocator@U?$pair@QAVCObject@@H@std@@@3@$0A@@std@@@std@@IAEPAU_Node@?$_Tree_nod@V?$_Tmap_traits@PAVCObject@@HU?$less@PAVCObject@@@std@@V?$allocator@U?$pair@QAVCObject@@H@std@@@3@$0A@@std@@@2@XZ 10018fb0 f i dllmain.obj
 0001:00018000       ??0?$_Tree_ptr@V?$_Tmap_traits@PAVCObject@@HU?$less@PAVCObject@@@std@@V?$allocator@U?$pair@QAVCObject@@H@std@@@3@$0A@@std@@@std@@IAE@ABU?$less@PAVCObject@@@1@V?$allocator@U?$pair@QAVCObject@@H@std@@@1@@Z 10019000 f i dllmain.obj
 0001:00018010       ??$?8DU?$char_traits@D@std@@V?$allocator@D@1@@std@@YA_NABV?$basic_string@DU?$char_traits@D@std@@V?$allocator@D@2@@0@0@Z 10019010 f i dllmain.obj
 0001:00018050       ??$?8DU?$char_traits@D@std@@V?$allocator@D@1@@std@@YA_NABV?$basic_string@DU?$char_traits@D@std@@V?$allocator@D@2@@0@PBD@Z 10019050 f i dllmain.obj
 0001:000180a0       ??1?$basic_ostringstream@DU?$char_traits@D@std@@V?$allocator@D@2@@std@@UAE@XZ 100190a0 f i dllmain.obj
 0001:00018130       ??0?$basic_stringbuf@DU?$char_traits@D@std@@V?$allocator@D@2@@std@@QAE@H@Z 10019130 f i dllmain.obj
 0001:000181d0       ??$_Destroy_range@Uvertex@@V?$allocator@Uvertex@@@std@@@std@@YAXPAUvertex@@0AAV?$allocator@Uvertex@@@0@U_Nonscalar_ptr_iterator_tag@0@@Z 100191d0 f i dllmain.obj
 0001:000181e0       ??$_Uninit_fill_n@PAUvertex@@IU1@V?$allocator@Uvertex@@@std@@@std@@YAXPAUvertex@@IABU1@AAV?$allocator@Uvertex@@@0@U_Nonscalar_ptr_iterator_tag@0@U_Range_checked_iterator_tag@0@@Z 100191e0 f i dllmain.obj
 0001:00018230       ??0?$basic_string@DU?$char_traits@D@std@@V?$allocator@D@2@@std@@QAE@XZ 10019230 f i dllmain.obj
 0001:00018250       ??1?$basic_string@DU?$char_traits@D@std@@V?$allocator@D@2@@std@@QAE@XZ 10019250 f i dllmain.obj
 0001:00018280       ?begin@?$_Tree@V?$_Tmap_traits@PAVCObject@@HU?$less@PAVCObject@@@std@@V?$allocator@U?$pair@QAVCObject@@H@std@@@3@$0A@@std@@@std@@QAE?AViterator@12@XZ 10019280 f i dllmain.obj
 0001:000182a0       ?end@?$_Tree@V?$_Tmap_traits@PAVCObject@@HU?$less@PAVCObject@@@std@@V?$allocator@U?$pair@QAVCObject@@H@std@@@3@$0A@@std@@@std@@QAE?AViterator@12@XZ 100192a0 f i dllmain.obj
 0001:000182c0       ??Eiterator@?$_Tree@V?$_Tmap_traits@PAVCObject@@HU?$less@PAVCObject@@@std@@V?$allocator@U?$pair@QAVCObject@@H@std@@@3@$0A@@std@@@std@@QAE?AV012@H@Z 100192c0 f i dllmain.obj
 0001:000182e0       ?begin@?$basic_string@DU?$char_traits@D@std@@V?$allocator@D@2@@std@@QAE?AV?$_String_iterator@DU?$char_traits@D@std@@V?$allocator@D@2@@2@XZ 100192e0 f i dllmain.obj
 0001:00018330       ??0?$basic_filebuf@DU?$char_traits@D@std@@@std@@QAE@PAU_iobuf@@@Z 10019330 f i dllmain.obj
 0001:000183a0       ??$_Fgetc@D@std@@YA_NAADPAU_iobuf@@@Z 100193a0 f i dllmain.obj
 0001:000183d0       ??$_Fputc@D@std@@YA_NDPAU_iobuf@@@Z 100193d0 f i dllmain.obj
 0001:00018400       ??$_Ungetc@D@std@@YA_NABDPAU_iobuf@@@Z 10019400 f i dllmain.obj
 0001:00018430       ?sync@?$basic_filebuf@DU?$char_traits@D@std@@@std@@MAEHXZ 10019430 f i dllmain.obj
 0001:00018470       ?_Gndec@?$basic_streambuf@DU?$char_traits@D@std@@@std@@IAEPADXZ 10019470 f i dllmain.obj
 0001:00018490       ??0?$fpos@H@std@@QAE@H_J@Z 10019490 f i dllmain.obj
 0001:000184c0       ?state@?$fpos@H@std@@QBEHXZ 100194c0 f i dllmain.obj
 0001:000184d0       ?seekpos@?$fpos@H@std@@QBE_JXZ 100194d0 f i dllmain.obj
 0001:000184e0       ?in@?$codecvt@DDH@std@@QBEHAAHPBD1AAPBDPAD3AAPAD@Z 100194e0 f i dllmain.obj
 0001:000184f0       ?out@?$codecvt@DDH@std@@QBEHAAHPBD1AAPBDPAD3AAPAD@Z 100194f0 f i dllmain.obj
 0001:00018500       ?pbackfail@?$basic_filebuf@DU?$char_traits@D@std@@@std@@MAEHH@Z 10019500 f i dllmain.obj
 0001:00018590       ?underflow@?$basic_filebuf@DU?$char_traits@D@std@@@std@@MAEHXZ 10019590 f i dllmain.obj
 0001:000185f0       ?setbuf@?$basic_filebuf@DU?$char_traits@D@std@@@std@@MAEPAV?$basic_streambuf@DU?$char_traits@D@std@@@2@PADH@Z 100195f0 f i dllmain.obj
 0001:000186a0       ?_Grow@?$basic_string@DU?$char_traits@D@std@@V?$allocator@D@2@@std@@IAE_NI_N@Z 100196a0 f i dllmain.obj
 0001:00018790       ?_Init@?$_Tree@V?$_Tmap_traits@PAVCObject@@HU?$less@PAVCObject@@@std@@V?$allocator@U?$pair@QAVCObject@@H@std@@@3@$0A@@std@@@std@@IAEXXZ 10019790 f i dllmain.obj
 0001:000187d0       ??0?$_Tree_val@V?$_Tmap_traits@PAVCObject@@HU?$less@PAVCObject@@@std@@V?$allocator@U?$pair@QAVCObject@@H@std@@@3@$0A@@std@@@std@@IAE@ABU?$less@PAVCObject@@@1@V?$allocator@U?$pair@QAVCObject@@H@std@@@1@@Z 100197d0 f i dllmain.obj
 0001:000187e0       ??$_Destroy_range@Uvertex@@V?$allocator@Uvertex@@@std@@@std@@YAXPAUvertex@@0AAV?$allocator@Uvertex@@@0@@Z 100197e0 f i dllmain.obj
 0001:000187f0       ??$unchecked_uninitialized_fill_n@PAUvertex@@IU1@V?$allocator@Uvertex@@@std@@@stdext@@YAXPAUvertex@@IABU1@AAV?$allocator@Uvertex@@@std@@@Z 100197f0 f i dllmain.obj
 0001:00018830       ??_D?$basic_ostringstream@DU?$char_traits@D@std@@V?$allocator@D@2@@std@@QAEXXZ 10019830 f i dllmain.obj
 0001:00018860       ??_E?$basic_ostringstream@DU?$char_traits@D@std@@V?$allocator@D@2@@std@@UAEPAXI@Z 10019860 f i dllmain.obj
 0001:00018860       ??_G?$basic_ostringstream@DU?$char_traits@D@std@@V?$allocator@D@2@@std@@UAEPAXI@Z 10019860 f i dllmain.obj
 0001:000188b0       ??1logic_error@std@@UAE@XZ 100198b0 f i dllmain.obj
 0001:000188f0       ?what@logic_error@std@@UBEPBDXZ 100198f0 f i dllmain.obj
 0001:00018910       ??_Glogic_error@std@@UAEPAXI@Z 10019910 f i dllmain.obj
 0001:00018910       ??_Elogic_error@std@@UAEPAXI@Z 10019910 f i dllmain.obj
 0001:00018970       ??1runtime_error@std@@UAE@XZ 10019970 f i dllmain.obj
 0001:000189b0       ?what@runtime_error@std@@UBEPBDXZ 100199b0 f i dllmain.obj
 0001:000189d0       ??_Eruntime_error@std@@UAEPAXI@Z 100199d0 f i dllmain.obj
 0001:000189d0       ??_Gruntime_error@std@@UAEPAXI@Z 100199d0 f i dllmain.obj
 0001:00018a30       ??1_Locinfo@std@@QAE@XZ    10019a30 f i dllmain.obj
 0001:00018b40       ?WriteString@CIniWriter@@QAEXPAD0V?$basic_string@DU?$char_traits@D@std@@V?$allocator@D@2@@std@@@Z 10019b40 f   dllmain.obj
 0001:00018b90       ?append@?$basic_string@DU?$char_traits@D@std@@V?$allocator@D@2@@std@@QAEAAV12@ABV12@II@Z 10019b90 f i dllmain.obj
 0001:00018cd0       ?append@?$basic_string@DU?$char_traits@D@std@@V?$allocator@D@2@@std@@QAEAAV12@ID@Z 10019cd0 f i dllmain.obj
 0001:00018da0       ?assign@?$basic_string@DU?$char_traits@D@std@@V?$allocator@D@2@@std@@QAEAAV12@ABV12@II@Z 10019da0 f i dllmain.obj
 0001:00018eb0       ??0?$_Tree@V?$_Tmap_traits@PAVCObject@@HU?$less@PAVCObject@@@std@@V?$allocator@U?$pair@QAVCObject@@H@std@@@3@$0A@@std@@@std@@QAE@ABU?$less@PAVCObject@@@1@ABV?$allocator@U?$pair@QAVCObject@@H@std@@@1@@Z 10019eb0 f i dllmain.obj
 0001:00018ef0       ?assign@?$basic_string@DU?$char_traits@D@std@@V?$allocator@D@2@@std@@QAEAAV12@PBDI@Z 10019ef0 f i dllmain.obj
 0001:00018ff0       ?assign@?$basic_string@DU?$char_traits@D@std@@V?$allocator@D@2@@std@@QAEAAV12@ID@Z 10019ff0 f i dllmain.obj
 0001:000190b0       ?_Destroy@?$vector@Uvertex@@V?$allocator@Uvertex@@@std@@@std@@IAEXPAUvertex@@0@Z 1001a0b0 f i dllmain.obj
 0001:000190c0       ?_Ufill@?$vector@Uvertex@@V?$allocator@Uvertex@@@std@@@std@@IAEPAUvertex@@PAU3@IABU3@@Z 1001a0c0 f i dllmain.obj
 0001:00019110       ??0?$basic_string@DU?$char_traits@D@std@@V?$allocator@D@2@@std@@QAE@PBDI@Z 1001a110 f i dllmain.obj
 0001:00019150       ??0?$basic_string@DU?$char_traits@D@std@@V?$allocator@D@2@@std@@QAE@ABV01@@Z 1001a150 f i dllmain.obj
 0001:00019180       ?append@?$basic_string@DU?$char_traits@D@std@@V?$allocator@D@2@@std@@QAEAAV12@ABV12@@Z 1001a180 f i dllmain.obj
 0001:000191a0       ?uflow@?$basic_filebuf@DU?$char_traits@D@std@@@std@@MAEHXZ 1001a1a0 f i dllmain.obj
 0001:000195e0       ??0?$basic_string@DU?$char_traits@D@std@@V?$allocator@D@2@@std@@QAE@ABV01@II@Z 1001a5e0 f i dllmain.obj
 0001:00019620       ??0?$basic_string@DU?$char_traits@D@std@@V?$allocator@D@2@@std@@QAE@ID@Z 1001a620 f i dllmain.obj
 0001:00019660       ?assign@?$basic_string@DU?$char_traits@D@std@@V?$allocator@D@2@@std@@QAEAAV12@ABV12@@Z 1001a660 f i dllmain.obj
 0001:00019680       ?assign@?$basic_string@DU?$char_traits@D@std@@V?$allocator@D@2@@std@@QAEAAV12@PBD@Z 1001a680 f i dllmain.obj
 0001:000196b0       ?_Tidy@?$vector@Uvertex@@V?$allocator@Uvertex@@@std@@@std@@IAEXXZ 1001a6b0 f i dllmain.obj
 0001:000196f0       ?_Endwrite@?$basic_filebuf@DU?$char_traits@D@std@@@std@@IAE_NXZ 1001a6f0 f i dllmain.obj
 0001:00019ae0       ?str@?$basic_stringbuf@DU?$char_traits@D@std@@V?$allocator@D@2@@std@@QBE?AV?$basic_string@DU?$char_traits@D@std@@V?$allocator@D@2@@2@XZ 1001aae0 f i dllmain.obj
 0001:00019c80       ??0logic_error@std@@QAE@ABV?$basic_string@DU?$char_traits@D@std@@V?$allocator@D@2@@1@@Z 1001ac80 f i dllmain.obj
 0001:00019d10       ??0length_error@std@@QAE@ABV?$basic_string@DU?$char_traits@D@std@@V?$allocator@D@2@@1@@Z 1001ad10 f i dllmain.obj
 0001:00019d30       ??1length_error@std@@UAE@XZ 1001ad30 f i dllmain.obj
 0001:00019d70       ??_Glength_error@std@@UAEPAXI@Z 1001ad70 f i dllmain.obj
 0001:00019d70       ??_Elength_error@std@@UAEPAXI@Z 1001ad70 f i dllmain.obj
 0001:00019dd0       ??0out_of_range@std@@QAE@ABV?$basic_string@DU?$char_traits@D@std@@V?$allocator@D@2@@1@@Z 1001add0 f i dllmain.obj
 0001:00019df0       ??1out_of_range@std@@UAE@XZ 1001adf0 f i dllmain.obj
 0001:00019e30       ??_Eout_of_range@std@@UAEPAXI@Z 1001ae30 f i dllmain.obj
 0001:00019e30       ??_Gout_of_range@std@@UAEPAXI@Z 1001ae30 f i dllmain.obj
 0001:00019e90       ??0runtime_error@std@@QAE@ABV?$basic_string@DU?$char_traits@D@std@@V?$allocator@D@2@@1@@Z 1001ae90 f i dllmain.obj
 0001:00019f20       ??0failure@ios_base@std@@QAE@ABV?$basic_string@DU?$char_traits@D@std@@V?$allocator@D@2@@2@@Z 1001af20 f i dllmain.obj
 0001:00019f40       ??1failure@ios_base@std@@UAE@XZ 1001af40 f i dllmain.obj
 0001:00019f80       ??_Efailure@ios_base@std@@UAEPAXI@Z 1001af80 f i dllmain.obj
 0001:00019f80       ??_Gfailure@ios_base@std@@UAEPAXI@Z 1001af80 f i dllmain.obj
 0001:00019fe0       ?ReadString@CIniReader@@QAE?AV?$basic_string@DU?$char_traits@D@std@@V?$allocator@D@2@@std@@PAD0PBD@Z 1001afe0 f   dllmain.obj
 0001:0001a050       ??0?$basic_string@DU?$char_traits@D@std@@V?$allocator@D@2@@std@@QAE@PBD@Z 1001b050 f i dllmain.obj
 0001:0001a0a0       ??4?$basic_string@DU?$char_traits@D@std@@V?$allocator@D@2@@std@@QAEAAV01@ABV01@@Z 1001b0a0 f i dllmain.obj
 0001:0001a0c0       ??4?$basic_string@DU?$char_traits@D@std@@V?$allocator@D@2@@std@@QAEAAV01@PBD@Z 1001b0c0 f i dllmain.obj
 0001:0001a0f0       ?substr@?$basic_string@DU?$char_traits@D@std@@V?$allocator@D@2@@std@@QBE?AV12@II@Z 1001b0f0 f i dllmain.obj
 0001:0001a130       ??1?$vector@Uvertex@@V?$allocator@Uvertex@@@std@@@std@@QAE@XZ 1001b130 f i dllmain.obj
 0001:0001a170       ?overflow@?$basic_filebuf@DU?$char_traits@D@std@@@std@@MAEHH@Z 1001b170 f i dllmain.obj
 0001:0001a630       ?seekoff@?$basic_filebuf@DU?$char_traits@D@std@@@std@@MAE?AV?$fpos@H@2@JHH@Z 1001b630 f i dllmain.obj
 0001:0001a740       ?seekpos@?$basic_filebuf@DU?$char_traits@D@std@@@std@@MAE?AV?$fpos@H@2@V32@H@Z 1001b740 f i dllmain.obj
 0001:0001a870       ?erase@?$_Tree@V?$_Tmap_traits@PAVCObject@@HU?$less@PAVCObject@@@std@@V?$allocator@U?$pair@QAVCObject@@H@std@@@3@$0A@@std@@@std@@QAE?AViterator@12@V312@@Z 1001b870 f i dllmain.obj
 0001:0001abe0       ??0logic_error@std@@QAE@ABV01@@Z 1001bbe0 f i dllmain.obj
 0001:0001ac70       ?close@?$basic_filebuf@DU?$char_traits@D@std@@@std@@QAEPAV12@XZ 1001bc70 f i dllmain.obj
 0001:0001acd0       ?_Insert@?$_Tree@V?$_Tmap_traits@PAVCObject@@HU?$less@PAVCObject@@@std@@V?$allocator@U?$pair@QAVCObject@@H@std@@@3@$0A@@std@@@std@@IAE?AViterator@12@_NPAU_Node@?$_Tree_nod@V?$_Tmap_traits@PAVCObject@@HU?$less@PAVCObject@@@std@@V?$allocator@U?$pair@QAVCObject@@H@std@@@3@$0A@@std@@@2@ABU?$pair@QAVCObject@@H@2@@Z 1001bcd0 f i dllmain.obj
 0001:0001af50       ??0length_error@std@@QAE@ABV01@@Z 1001bf50 f i dllmain.obj
 0001:0001af70       ?erase@?$_Tree@V?$_Tmap_traits@PAVCObject@@HU?$less@PAVCObject@@@std@@V?$allocator@U?$pair@QAVCObject@@H@std@@@3@$0A@@std@@@std@@QAE?AViterator@12@V312@0@Z 1001bf70 f i dllmain.obj
 0001:0001b070       ?_Xlen@?$vector@Uvertex@@V?$allocator@Uvertex@@@std@@@std@@KAXXZ 1001c070 f i dllmain.obj
 0001:0001b110       ?str@?$basic_ostringstream@DU?$char_traits@D@std@@V?$allocator@D@2@@std@@QBE?AV?$basic_string@DU?$char_traits@D@std@@V?$allocator@D@2@@2@XZ 1001c110 f i dllmain.obj
 0001:0001b140       ??0_Locinfo@std@@QAE@PBD@Z 1001c140 f i dllmain.obj
 0001:0001b240       ??0runtime_error@std@@QAE@ABV01@@Z 1001c240 f i dllmain.obj
 0001:0001b2d0       ??0out_of_range@std@@QAE@ABV01@@Z 1001c2d0 f i dllmain.obj
 0001:0001b2f0       ??0?$ctype@D@std@@QAE@PBF_NI@Z 1001c2f0 f i dllmain.obj
 0001:0001b430       ?do_tolower@?$ctype@D@std@@MBEDD@Z 1001c430 f i dllmain.obj
 0001:0001b450       ?do_tolower@?$ctype@D@std@@MBEPBDPADPBD@Z 1001c450 f i dllmain.obj
 0001:0001b490       ?do_toupper@?$ctype@D@std@@MBEDD@Z 1001c490 f i dllmain.obj
 0001:0001b4b0       ?do_toupper@?$ctype@D@std@@MBEPBDPADPBD@Z 1001c4b0 f i dllmain.obj
 0001:0001b4f0       ?do_widen@?$ctype@D@std@@MBEDD@Z 1001c4f0 f i dllmain.obj
 0001:0001b500       ?do_widen@?$ctype@D@std@@MBEPBDPBD0PAD@Z 1001c500 f i dllmain.obj
 0001:0001b530       ?_Do_widen_s@?$ctype@D@std@@MBEPBDPBD0PADI@Z 1001c530 f i dllmain.obj
 0001:0001b580       ?do_narrow@?$ctype@D@std@@MBEDDD@Z 1001c580 f i dllmain.obj
 0001:0001b590       ?do_narrow@?$ctype@D@std@@MBEPBDPBD0DPAD@Z 1001c590 f i dllmain.obj
 0001:0001b5c0       ?_Do_narrow_s@?$ctype@D@std@@MBEPBDPBD0DPADI@Z 1001c5c0 f i dllmain.obj
 0001:0001b610       ??1?$ctype@D@std@@MAE@XZ   1001c610 f i dllmain.obj
 0001:0001b660       ??_G?$ctype@D@std@@MAEPAXI@Z 1001c660 f i dllmain.obj
 0001:0001b660       ??_E?$ctype@D@std@@MAEPAXI@Z 1001c660 f i dllmain.obj
 0001:0001b6c0       ?_Getcat@?$ctype@D@std@@SAIPAPBVfacet@locale@2@@Z 1001c6c0 f i dllmain.obj
 0001:0001b750       ?clear@ios_base@std@@QAEXH_N@Z 1001c750 f i dllmain.obj
 0001:0001b8d0       ??0failure@ios_base@std@@QAE@ABV012@@Z 1001c8d0 f i dllmain.obj
 0001:0001b8f0       ?clear@ios_base@std@@QAEXH@Z 1001c8f0 f i dllmain.obj
 0001:0001b910       ?_Init@ios_base@std@@IAEXXZ 1001c910 f i dllmain.obj
 0001:0001b9b0       ?ObjectESP@@YAXXZ          1001c9b0 f   dllmain.obj
 0001:0001c1b0       ??1?$basic_filebuf@DU?$char_traits@D@std@@@std@@UAE@XZ 1001d1b0 f i dllmain.obj
 0001:0001c230       ?insert@?$_Tree@V?$_Tmap_traits@PAVCObject@@HU?$less@PAVCObject@@@std@@V?$allocator@U?$pair@QAVCObject@@H@std@@@3@$0A@@std@@@std@@QAE?AU?$pair@Viterator@?$_Tree@V?$_Tmap_traits@PAVCObject@@HU?$less@PAVCObject@@@std@@V?$allocator@U?$pair@QAVCObject@@H@std@@@3@$0A@@std@@@std@@_N@2@ABU?$pair@QAVCObject@@H@2@@Z 1001d230 f i dllmain.obj
 0001:0001c320       ??_G?$basic_filebuf@DU?$char_traits@D@std@@@std@@UAEPAXI@Z 1001d320 f i dllmain.obj
 0001:0001c320       ??_E?$basic_filebuf@DU?$char_traits@D@std@@@std@@UAEPAXI@Z 1001d320 f i dllmain.obj
 0001:0001c350       ?clear@?$basic_ios@DU?$char_traits@D@std@@@std@@QAEXH_N@Z 1001d350 f i dllmain.obj
 0001:0001c370       ?_Tidy@?$_Tree@V?$_Tmap_traits@PAVCObject@@HU?$less@PAVCObject@@@std@@V?$allocator@U?$pair@QAVCObject@@H@std@@@3@$0A@@std@@@std@@IAEXXZ 1001d370 f i dllmain.obj
 0001:0001c3c0       ?_Buy@?$vector@Uvertex@@V?$allocator@Uvertex@@@std@@@std@@IAE_NI@Z 1001d3c0 f i dllmain.obj
 0001:0001c420       ??$use_facet@V?$ctype@D@std@@@std@@YAABV?$ctype@D@0@ABVlocale@0@@Z 1001d420 f i dllmain.obj
 0001:0001c5a0       ??0?$num_put@DV?$ostreambuf_iterator@DU?$char_traits@D@std@@@std@@@std@@QAE@I@Z 1001d5a0 f i dllmain.obj
 0001:0001c670       ?_Getlconv@_Locinfo@std@@QBEPBUlconv@@XZ 1001d670 f i dllmain.obj
 0001:0001c680       ?_Getfalse@_Locinfo@std@@QBEPBDXZ 1001d680 f i dllmain.obj
 0001:0001c690       ?_Gettrue@_Locinfo@std@@QBEPBDXZ 1001d690 f i dllmain.obj
 0001:0001c6a0       ?precision@ios_base@std@@QBEHXZ 1001d6a0 f i dllmain.obj
 0001:0001c6b0       ??1?$num_put@DV?$ostreambuf_iterator@DU?$char_traits@D@std@@@std@@@std@@MAE@XZ 1001d6b0 f i dllmain.obj
 0001:0001c6c0       ??_E?$num_put@DV?$ostreambuf_iterator@DU?$char_traits@D@std@@@std@@@std@@MAEPAXI@Z 1001d6c0 f i dllmain.obj
 0001:0001c6c0       ??_G?$num_put@DV?$ostreambuf_iterator@DU?$char_traits@D@std@@@std@@@std@@MAEPAXI@Z 1001d6c0 f i dllmain.obj
 0001:0001c6f0       ?_Ffmt@?$num_put@DV?$ostreambuf_iterator@DU?$char_traits@D@std@@@std@@@std@@ABAPADPADDH@Z 1001d6f0 f i dllmain.obj
 0001:0001c780       ?_Ifmt@?$num_put@DV?$ostreambuf_iterator@DU?$char_traits@D@std@@@std@@@std@@ABAPADPADPBDH@Z 1001d780 f i dllmain.obj
 0001:0001c840       ??A?$basic_string@DU?$char_traits@D@std@@V?$allocator@D@2@@std@@QAEAADI@Z 1001d840 f i dllmain.obj
 0001:0001c880       ??D?$ostreambuf_iterator@DU?$char_traits@D@std@@@std@@QAEAAV01@XZ 1001d880 f i dllmain.obj
 0001:0001c890       ??E?$ostreambuf_iterator@DU?$char_traits@D@std@@@std@@QAEAAV01@XZ 1001d890 f i dllmain.obj
 0001:0001c8a0       ?decimal_point@?$numpunct@D@std@@QBEDXZ 1001d8a0 f i dllmain.obj
 0001:0001c8b0       ?thousands_sep@?$numpunct@D@std@@QBEDXZ 1001d8b0 f i dllmain.obj
 0001:0001c8c0       ?_Tidy@?$numpunct@D@std@@AAEXXZ 1001d8c0 f i dllmain.obj
 0001:0001c8f0       ??$_Maklocchr@D@std@@YADDPADABU_Cvtvec@@@Z 1001d8f0 f i dllmain.obj
 0001:0001c900       ??$_Maklocstr@D@std@@YAPADPBDPADABU_Cvtvec@@@Z 1001d900 f i dllmain.obj
 0001:0001c960       ??4?$ostreambuf_iterator@DU?$char_traits@D@std@@@std@@QAEAAV01@D@Z 1001d960 f i dllmain.obj
 0001:0001c9d0       ?_Init@?$numpunct@D@std@@IAEXABV_Locinfo@2@@Z 1001d9d0 f i dllmain.obj
 0001:0001cae0       ?_Put@?$num_put@DV?$ostreambuf_iterator@DU?$char_traits@D@std@@@std@@@std@@ABA?AV?$ostreambuf_iterator@DU?$char_traits@D@std@@@2@V32@PBDI@Z 1001dae0 f i dllmain.obj
 0001:0001cb80       ?_Rep@?$num_put@DV?$ostreambuf_iterator@DU?$char_traits@D@std@@@std@@@std@@ABA?AV?$ostreambuf_iterator@DU?$char_traits@D@std@@@2@V32@DI@Z 1001db80 f i dllmain.obj
 0001:0001cc10       ?_Putc@?$num_put@DV?$ostreambuf_iterator@DU?$char_traits@D@std@@@std@@@std@@ABA?AV?$ostreambuf_iterator@DU?$char_traits@D@std@@@2@V32@PBDI@Z 1001dc10 f i dllmain.obj
 0001:0001ccb0       ?_Putgrouped@?$num_put@DV?$ostreambuf_iterator@DU?$char_traits@D@std@@@std@@@std@@ABA?AV?$ostreambuf_iterator@DU?$char_traits@D@std@@@2@V32@PBDID@Z 1001dcb0 f i dllmain.obj
 0001:0001cdb0       ?falsename@?$numpunct@D@std@@QBE?AV?$basic_string@DU?$char_traits@D@std@@V?$allocator@D@2@@2@XZ 1001ddb0 f i dllmain.obj
 0001:0001cde0       ?truename@?$numpunct@D@std@@QBE?AV?$basic_string@DU?$char_traits@D@std@@V?$allocator@D@2@@2@XZ 1001dde0 f i dllmain.obj
 0001:0001ce10       ?insert@?$basic_string@DU?$char_traits@D@std@@V?$allocator@D@2@@std@@QAEAAV12@IID@Z 1001de10 f i dllmain.obj
 0001:0001cf50       ?grouping@?$numpunct@D@std@@QBE?AV?$basic_string@DU?$char_traits@D@std@@V?$allocator@D@2@@2@XZ 1001df50 f i dllmain.obj
 0001:0001cf80       ?append@?$basic_string@DU?$char_traits@D@std@@V?$allocator@D@2@@std@@QAEAAV12@PBDI@Z 1001df80 f i dllmain.obj
 0001:0001d0b0       ??0?$codecvt@DDH@std@@QAE@I@Z 1001e0b0 f i dllmain.obj
 0001:0001d170       ??1?$codecvt@DDH@std@@MAE@XZ 1001e170 f i dllmain.obj
 0001:0001d180       ?do_in@?$codecvt@DDH@std@@MBEHAAHPBD1AAPBDPAD3AAPAD@Z 1001e180 f i dllmain.obj
 0001:0001d1b0       ?do_out@?$codecvt@DDH@std@@MBEHAAHPBD1AAPBDPAD3AAPAD@Z 1001e1b0 f i dllmain.obj
 0001:0001d1e0       ?do_unshift@?$codecvt@DDH@std@@MBEHAAHPAD1AAPAD@Z 1001e1e0 f i dllmain.obj
 0001:0001d200       ?do_length@?$codecvt@DDH@std@@MBEHABHPBD1I@Z 1001e200 f i dllmain.obj
 0001:0001d220       ??_E?$codecvt@DDH@std@@MAEPAXI@Z 1001e220 f i dllmain.obj
 0001:0001d220       ??_G?$codecvt@DDH@std@@MAEPAXI@Z 1001e220 f i dllmain.obj
 0001:0001d250       ??0?$numpunct@D@std@@QAE@I@Z 1001e250 f i dllmain.obj
 0001:0001d340       ?do_decimal_point@?$numpunct@D@std@@MBEDXZ 1001e340 f i dllmain.obj
 0001:0001d350       ?do_thousands_sep@?$numpunct@D@std@@MBEDXZ 1001e350 f i dllmain.obj
 0001:0001d360       ??1?$numpunct@D@std@@MAE@XZ 1001e360 f i dllmain.obj
 0001:0001d3a0       ??_G?$numpunct@D@std@@MAEPAXI@Z 1001e3a0 f i dllmain.obj
 0001:0001d3a0       ??_E?$numpunct@D@std@@MAEPAXI@Z 1001e3a0 f i dllmain.obj
 0001:0001d400       ?do_grouping@?$numpunct@D@std@@MBE?AV?$basic_string@DU?$char_traits@D@std@@V?$allocator@D@2@@2@XZ 1001e400 f i dllmain.obj
 0001:0001d460       ?do_falsename@?$numpunct@D@std@@MBE?AV?$basic_string@DU?$char_traits@D@std@@V?$allocator@D@2@@2@XZ 1001e460 f i dllmain.obj
 0001:0001d4c0       ?do_truename@?$numpunct@D@std@@MBE?AV?$basic_string@DU?$char_traits@D@std@@V?$allocator@D@2@@2@XZ 1001e4c0 f i dllmain.obj
 0001:0001d520       ?createObjectWrapper@@YAPAVCObject@@HHH@Z 1001e520 f   dllmain.obj
 0001:0001d5b0       ?setstate@?$basic_ios@DU?$char_traits@D@std@@@std@@QAEXH_N@Z 1001e5b0 f i dllmain.obj
 0001:0001d5e0       ??1?$basic_ofstream@DU?$char_traits@D@std@@@std@@UAE@XZ 1001e5e0 f i dllmain.obj
 0001:0001d660       ?close@?$basic_ofstream@DU?$char_traits@D@std@@@std@@QAEXXZ 1001e660 f i dllmain.obj
 0001:0001d6a0       ??1?$_Tree@V?$_Tmap_traits@PAVCObject@@HU?$less@PAVCObject@@@std@@V?$allocator@U?$pair@QAVCObject@@H@std@@@3@$0A@@std@@@std@@QAE@XZ 1001e6a0 f i dllmain.obj
 0001:0001d6f0       ?_Construct_n@?$vector@Uvertex@@V?$allocator@Uvertex@@@std@@@std@@QAEXIABUvertex@@@Z 1001e6f0 f i dllmain.obj
 0001:0001d7e0       ?widen@?$basic_ios@DU?$char_traits@D@std@@@std@@QBEDD@Z 1001e7e0 f i dllmain.obj
 0001:0001d8d0       ?_Getcat@?$num_put@DV?$ostreambuf_iterator@DU?$char_traits@D@std@@@std@@@std@@SAIPAPBVfacet@locale@2@@Z 1001e8d0 f i dllmain.obj
 0001:0001d960       ?_Getcat@?$codecvt@DDH@std@@SAIPAPBVfacet@locale@2@@Z 1001e960 f i dllmain.obj
 0001:0001d9f0       ?_Getcat@?$numpunct@D@std@@SAIPAPBVfacet@locale@2@@Z 1001e9f0 f i dllmain.obj
 0001:0001da80       ??_D?$basic_ofstream@DU?$char_traits@D@std@@@std@@QAEXXZ 1001ea80 f i dllmain.obj
 0001:0001dab0       ??1?$map@PAVCObject@@HU?$less@PAVCObject@@@std@@V?$allocator@U?$pair@QAVCObject@@H@std@@@3@@std@@QAE@XZ 1001eab0 f i dllmain.obj
 0001:0001db00       ?flush@?$basic_ostream@DU?$char_traits@D@std@@@std@@QAEAAV12@XZ 1001eb00 f i dllmain.obj
 0001:0001db70       ??0?$vector@Uvertex@@V?$allocator@Uvertex@@@std@@@std@@QAE@I@Z 1001eb70 f i dllmain.obj
 0001:0001dbc0       ??0?$map@PAVCObject@@HU?$less@PAVCObject@@@std@@V?$allocator@U?$pair@QAVCObject@@H@std@@@3@@std@@QAE@XZ 1001ebc0 f i dllmain.obj
 0001:0001dc00       ??_G?$basic_ofstream@DU?$char_traits@D@std@@@std@@UAEPAXI@Z 1001ec00 f i dllmain.obj
 0001:0001dc00       ??_E?$basic_ofstream@DU?$char_traits@D@std@@@std@@UAEPAXI@Z 1001ec00 f i dllmain.obj
 0001:0001dc50       ??0sentry@?$basic_ostream@DU?$char_traits@D@std@@@std@@QAE@AAV12@@Z 1001ec50 f i dllmain.obj
 0001:0001dd00       ?_Osfx@?$basic_ostream@DU?$char_traits@D@std@@@std@@QAEXXZ 1001ed00 f i dllmain.obj
 0001:0001dd70       ?init@?$basic_ios@DU?$char_traits@D@std@@@std@@IAEXPAV?$basic_streambuf@DU?$char_traits@D@std@@@2@_N@Z 1001ed70 f i dllmain.obj
 0001:0001dde0       ??$use_facet@V?$num_put@DV?$ostreambuf_iterator@DU?$char_traits@D@std@@@std@@@std@@@std@@YAABV?$num_put@DV?$ostreambuf_iterator@DU?$char_traits@D@std@@@std@@@0@ABVlocale@0@@Z 1001ede0 f i dllmain.obj
 0001:0001df60       ??$use_facet@V?$codecvt@DDH@std@@@std@@YAABV?$codecvt@DDH@0@ABVlocale@0@@Z 1001ef60 f i dllmain.obj
 0001:0001e0e0       ??$use_facet@V?$numpunct@D@std@@@std@@YAABV?$numpunct@D@0@ABVlocale@0@@Z 1001f0e0 f i dllmain.obj
 0001:0001e260       ?Circle@CDraw@@QAEXMMMHH_NHK@Z 1001f260 f   dllmain.obj
 0001:0001e860       ?CircleFilled@CDraw@@QAEXMMMMHHK@Z 1001f860 f   dllmain.obj
 0001:0001ed40       ?BoxRounded@CDraw@@QAEXMMMMM_NKK@Z 1001fd40 f   dllmain.obj
 0001:0001f360       ?Message@CDraw@@QAEXPADMMHH@Z 10020360 f   dllmain.obj
 0001:0001f6d0       ?imbue@?$basic_filebuf@DU?$char_traits@D@std@@@std@@MAEXABVlocale@2@@Z 100206d0 f i dllmain.obj
 0001:0001f720       ??0?$basic_ostream@DU?$char_traits@D@std@@@std@@QAE@PAV?$basic_streambuf@DU?$char_traits@D@std@@@1@_N@Z 10020720 f i dllmain.obj
 0001:0001f7d0       ?open@?$basic_filebuf@DU?$char_traits@D@std@@@std@@QAEPAV12@PBDHH@Z 100207d0 f i dllmain.obj
 0001:0001f930       ??1sentry@?$basic_ostream@DU?$char_traits@D@std@@@std@@QAE@XZ 10020930 f i dllmain.obj
 0001:0001f9c0       ?do_put@?$num_put@DV?$ostreambuf_iterator@DU?$char_traits@D@std@@@std@@@std@@MBE?AV?$ostreambuf_iterator@DU?$char_traits@D@std@@@2@V32@AAVios_base@2@D_N@Z 100209c0 f i dllmain.obj
 0001:0001fca0       ?_Fput@?$num_put@DV?$ostreambuf_iterator@DU?$char_traits@D@std@@@std@@@std@@ABA?AV?$ostreambuf_iterator@DU?$char_traits@D@std@@@2@V32@AAVios_base@2@DPBDIIII@Z 10020ca0 f i dllmain.obj
 0001:00020570       ?_Iput@?$num_put@DV?$ostreambuf_iterator@DU?$char_traits@D@std@@@std@@@std@@ABA?AV?$ostreambuf_iterator@DU?$char_traits@D@std@@@2@V32@AAVios_base@2@DPADI@Z 10021570 f i dllmain.obj
 0001:000209a0       ??$?6U?$char_traits@D@std@@@std@@YAAAV?$basic_ostream@DU?$char_traits@D@std@@@0@AAV10@PBD@Z 100219a0 f i dllmain.obj
 0001:00020c30       ??6?$basic_ostream@DU?$char_traits@D@std@@@std@@QAEAAV01@M@Z 10021c30 f i dllmain.obj
 0001:00020de0       ??0?$basic_ostringstream@DU?$char_traits@D@std@@V?$allocator@D@2@@std@@QAE@H@Z 10021de0 f i dllmain.obj
 0001:00020ef0       ??6?$basic_ostream@DU?$char_traits@D@std@@@std@@QAEAAV01@H@Z 10021ef0 f i dllmain.obj
 0001:000210a0       ??6?$basic_ostream@DU?$char_traits@D@std@@@std@@QAEAAV01@K@Z 100220a0 f i dllmain.obj
 0001:00021250       ??6?$basic_ostream@DU?$char_traits@D@std@@@std@@QAEAAV01@PBX@Z 10022250 f i dllmain.obj
 0001:00021400       ?put@?$basic_ostream@DU?$char_traits@D@std@@@std@@QAEAAV12@D@Z 10022400 f i dllmain.obj
 0001:00021570       ??0?$basic_ofstream@DU?$char_traits@D@std@@@std@@QAE@XZ 10022570 f i dllmain.obj
 0001:000216b0       ?open@?$basic_ofstream@DU?$char_traits@D@std@@@std@@QAEXPBDHH@Z 100226b0 f i dllmain.obj
 0001:00021710       ?do_put@?$num_put@DV?$ostreambuf_iterator@DU?$char_traits@D@std@@@std@@@std@@MBE?AV?$ostreambuf_iterator@DU?$char_traits@D@std@@@2@V32@AAVios_base@2@DJ@Z 10022710 f i dllmain.obj
 0001:000217d0       ?do_put@?$num_put@DV?$ostreambuf_iterator@DU?$char_traits@D@std@@@std@@@std@@MBE?AV?$ostreambuf_iterator@DU?$char_traits@D@std@@@2@V32@AAVios_base@2@DK@Z 100227d0 f i dllmain.obj
 0001:00021890       ?do_put@?$num_put@DV?$ostreambuf_iterator@DU?$char_traits@D@std@@@std@@@std@@MBE?AV?$ostreambuf_iterator@DU?$char_traits@D@std@@@2@V32@AAVios_base@2@D_J@Z 10022890 f i dllmain.obj
 0001:00021950       ?do_put@?$num_put@DV?$ostreambuf_iterator@DU?$char_traits@D@std@@@std@@@std@@MBE?AV?$ostreambuf_iterator@DU?$char_traits@D@std@@@2@V32@AAVios_base@2@D_K@Z 10022950 f i dllmain.obj
 0001:00021a10       ?do_put@?$num_put@DV?$ostreambuf_iterator@DU?$char_traits@D@std@@@std@@@std@@MBE?AV?$ostreambuf_iterator@DU?$char_traits@D@std@@@2@V32@AAVios_base@2@DN@Z 10022a10 f i dllmain.obj
 0001:00021c70       ?do_put@?$num_put@DV?$ostreambuf_iterator@DU?$char_traits@D@std@@@std@@@std@@MBE?AV?$ostreambuf_iterator@DU?$char_traits@D@std@@@2@V32@AAVios_base@2@DO@Z 10022c70 f i dllmain.obj
 0001:00021ee0       ?do_put@?$num_put@DV?$ostreambuf_iterator@DU?$char_traits@D@std@@@std@@@std@@MBE?AV?$ostreambuf_iterator@DU?$char_traits@D@std@@@2@V32@AAVios_base@2@DPBX@Z 10022ee0 f i dllmain.obj
 0001:00021f80       ??$NumberToString@M@@YA?AV?$basic_string@DU?$char_traits@D@std@@V?$allocator@D@2@@std@@M@Z 10022f80 f i dllmain.obj
 0001:00022070       ??$NumberToString@H@@YA?AV?$basic_string@DU?$char_traits@D@std@@V?$allocator@D@2@@std@@H@Z 10023070 f i dllmain.obj
 0001:00022150       ?endl@std@@YAAAV?$basic_ostream@DU?$char_traits@D@std@@@1@AAV21@@Z 10023150 f i dllmain.obj
 0001:00022170       ?process_command@@YAXXZ    10023170 f   dllmain.obj
 0001:00022a10       ?CaptureInput@@YAXXZ       10023a10 f   dllmain.obj
 0001:00024660       ?InitStuff@@YAXXZ          10025660 f   dllmain.obj
 0001:00024a30       ?InitWMFont@@YAXXZ         10025a30 f   dllmain.obj
 0001:00024aa0       ?InitMenuFont@@YAXXZ       10025aa0 f   dllmain.obj
 0001:00024b10       ?InitWarningFont@@YAXXZ    10025b10 f   dllmain.obj
 0001:00024b90       ?InitLines@@YAXXZ          10025b90 f   dllmain.obj
 0001:00024c50       ?HookActionBuffer@@YA_NXZ  10025c50 f   dllmain.obj
 0001:00024da0       ?Logger@@YAXXZ             10025da0 f   dllmain.obj
 0001:00024de0       ?ESPStuff@@YAXXZ           10025de0 f   dllmain.obj
 0001:00026c40       ?hkPresent@@YGXH@Z         10027c40 f   dllmain.obj
 0001:00026d00       ?hkEndScene@@YGJPAUIDirect3DDevice9@@@Z 10027d00 f   dllmain.obj
 0001:00027530       ?hkDrawIndexedPrimitive@@YGJPAUIDirect3DDevice9@@W4_D3DPRIMITIVETYPE@@HIIII@Z 10028530 f   dllmain.obj
 0001:0002c170       ?LoopTime@@YAXXZ           1002d170 f   dllmain.obj
 0001:0002cb90       ?Main@@YGKPAX@Z            1002db90 f   dllmain.obj
 0001:0002de10       ?startThread@@YAXXZ        1002ee10 f   dllmain.obj
 0001:0002de50       _DllMain@12                1002ee50 f   dllmain.obj
 0001:0002e16a       _VirtualProtect@16         1002f16a f   kernel32:KERNEL32.dll
 0001:0002e170       _Sleep@4                   1002f170 f   kernel32:KERNEL32.dll
 0001:0002e176       _GetModuleHandleA@4        1002f176 f   kernel32:KERNEL32.dll
 0001:0002e17c       _GetProcAddress@8          1002f17c f   kernel32:KERNEL32.dll
 0001:0002e182       _VirtualProtectEx@20       1002f182 f   kernel32:KERNEL32.dll
 0001:0002e188       _GetCurrentProcess@0       1002f188 f   kernel32:KERNEL32.dll
 0001:0002e18e       _IsBadReadPtr@8            1002f18e f   kernel32:KERNEL32.dll
 0001:0002e194       _CloseHandle@4             1002f194 f   kernel32:KERNEL32.dll
 0001:0002e19a       _Module32Next@8            1002f19a f   kernel32:KERNEL32.dll
 0001:0002e1a0       _Module32First@8           1002f1a0 f   kernel32:KERNEL32.dll
 0001:0002e1a6       _CreateToolhelp32Snapshot@8 1002f1a6 f   kernel32:KERNEL32.dll
 0001:0002e1ac       _GetPrivateProfileIntA@16  1002f1ac f   kernel32:KERNEL32.dll
 0001:0002e1b2       _GetPrivateProfileStringA@24 1002f1b2 f   kernel32:KERNEL32.dll
 0001:0002e1b8       _WritePrivateProfileStringA@16 1002f1b8 f   kernel32:KERNEL32.dll
 0001:0002e1be       _GetProcessId@4            1002f1be f   kernel32:KERNEL32.dll
 0001:0002e1c4       _GetTimeFormatA@24         1002f1c4 f   kernel32:KERNEL32.dll
 0001:0002e1ca       _CreateThread@24           1002f1ca f   kernel32:KERNEL32.dll
 0001:0002e1d0       _LoadLibraryA@4            1002f1d0 f   kernel32:KERNEL32.dll
 0001:0002e1d6       _D3DXCreateLine@8          1002f1d6 f   d3dx9:d3dx9_43.dll
 0001:0002e1dc       _D3DXMatrixTransformation2D@28 1002f1dc f   d3dx9:d3dx9_43.dll
 0001:0002e1e2       _D3DXCreateFontA@48        1002f1e2 f   d3dx9:d3dx9_43.dll
 0001:0002e1e8       _D3DXVec3Normalize@8       1002f1e8 f   d3dx9:d3dx9_43.dll
 0001:0002e1ee       _D3DXMatrixMultiply@12     1002f1ee f   d3dx9:d3dx9_43.dll
 0001:0002e1f4       _D3DXMatrixRotationYawPitchRoll@16 1002f1f4 f   d3dx9:d3dx9_43.dll
 0001:0002e1fa       _D3DXAssembleShader@28     1002f1fa f   d3dx9:d3dx9_43.dll
 0001:0002e200       _D3DXCreateTextureFromFileInMemory@16 1002f200 f   d3dx9:d3dx9_43.dll
 0001:0002e206       __Tolower                  1002f206 f   libcpmt:_tolower.obj
 0001:0002e315       __Getctype                 1002f315 f   libcpmt:_tolower.obj
 0001:0002e370       __Wcrtomb                  1002f370 f   libcpmt:xwctomb.obj
 0001:0002e3f1       __Getcvt                   1002f3f1 f   libcpmt:xwctomb.obj
 0001:0002e405       ___Wcrtomb_lk              1002f405 f   libcpmt:xwctomb.obj
 0001:0002e40a       ??0_Init_locks@std@@QAE@XZ 1002f40a f   libcpmt:xlock.obj
 0001:0002e439       ??1_Init_locks@std@@QAE@XZ 1002f439 f   libcpmt:xlock.obj
 0001:0002e462       ?_Init_locks_ctor@_Init_locks@std@@CAXPAV12@@Z 1002f462 f   libcpmt:xlock.obj
 0001:0002e48b       ?_Init_locks_dtor@_Init_locks@std@@CAXPAV12@@Z 1002f48b f   libcpmt:xlock.obj
 0001:0002e4b4       ??0_Lockit@std@@QAE@XZ     1002f4b4 f   libcpmt:xlock.obj
 0001:0002e4c9       ??0_Lockit@std@@QAE@H@Z    1002f4c9 f   libcpmt:xlock.obj
 0001:0002e4ea       ??1_Lockit@std@@QAE@XZ     1002f4ea f   libcpmt:xlock.obj
 0001:0002e4fc       ?_Lockit_ctor@_Lockit@std@@CAXPAV12@@Z 1002f4fc f   libcpmt:xlock.obj
 0001:0002e508       ?_Lockit_ctor@_Lockit@std@@CAXPAV12@H@Z 1002f508 f   libcpmt:xlock.obj
 0001:0002e525       ?_Lockit_dtor@_Lockit@std@@CAXPAV12@@Z 1002f525 f   libcpmt:xlock.obj
 0001:0002e53b       ?_Lockit_ctor@_Lockit@std@@SAXH@Z 1002f53b f   libcpmt:xlock.obj
 0001:0002e552       ?_Lockit_dtor@_Lockit@std@@SAXH@Z 1002f552 f   libcpmt:xlock.obj
 0001:0002e569       ??0locale@std@@QAE@W4_Uninitialized@1@@Z 1002f569 f i libcpmt:locale0.obj
 0001:0002e56e       ??0locale@std@@AAE@PAV_Locimp@01@@Z 1002f56e f i libcpmt:locale0.obj
 0001:0002e579       ??0_Fac_node@std@@QAE@PAU01@PAVfacet@locale@1@@Z 1002f579 f i libcpmt:locale0.obj
 0001:0002e58b       ??1_Fac_node@std@@QAE@XZ   1002f58b f i libcpmt:locale0.obj
 0001:0002e5a0       ??_G_Fac_node@std@@QAEPAXI@Z 1002f5a0 f i libcpmt:locale0.obj
 0001:0002e5bc       __Deletegloballocale       1002f5bc f   libcpmt:locale0.obj
 0001:0002e602       ?_Getgloballocale@locale@std@@CAPAV_Locimp@12@XZ 1002f602 f   libcpmt:locale0.obj
 0001:0002e608       ?_Setgloballocale@locale@std@@CAXPAX@Z 1002f608 f   libcpmt:locale0.obj
 0001:0002e62d       ?_Clocptr_func@_Locimp@locale@std@@CAAAPAV123@XZ 1002f62d f   libcpmt:locale0.obj
 0001:0002e633       ?_Id_cnt_func@id@locale@std@@CAAAHXZ 1002f633 f   libcpmt:locale0.obj
 0001:0002e639       ?_Id_func@?$ctype@D@std@@SAAAVid@locale@2@XZ 1002f639 f   libcpmt:locale0.obj
 0001:0002e63f       ?_Id_func@?$ctype@_W@std@@SAAAVid@locale@2@XZ 1002f63f f   libcpmt:locale0.obj
 0001:0002e645       ?_Id_func@?$codecvt@_WDH@std@@SAAAVid@locale@2@XZ 1002f645 f   libcpmt:locale0.obj
 0001:0002e64b       ?_Id_func@?$ctype@G@std@@SAAAVid@locale@2@XZ 1002f64b f   libcpmt:locale0.obj
 0001:0002e651       ?_Id_func@?$codecvt@GDH@std@@SAAAVid@locale@2@XZ 1002f651 f   libcpmt:locale0.obj
 0001:0002e657       ?_Locimp_dtor@_Locimp@locale@std@@CAXPAV123@@Z 1002f657 f   libcpmt:locale0.obj
 0001:0002e6b7       __Fac_tidy                 1002f6b7 f   libcpmt:locale0.obj
 0001:0002e6fa       ?facet_Register@facet@locale@std@@CAXPAV123@@Z 1002f6fa f   libcpmt:locale0.obj
 0001:0002e733       ?_Locinfo_dtor@_Locinfo@std@@SAXPAV12@@Z 1002f733 f   libcpmt:locale0.obj
 0001:0002e756       ??0_Locimp@locale@std@@AAE@_N@Z 1002f756 f i libcpmt:locale0.obj
 0001:0002e79f       ??1_Locimp@locale@std@@MAE@XZ 1002f79f f i libcpmt:locale0.obj
 0001:0002e7dc       ??_E_Locimp@locale@std@@MAEPAXI@Z 1002f7dc f i libcpmt:locale0.obj
 0001:0002e7dc       ??_G_Locimp@locale@std@@MAEPAXI@Z 1002f7dc f i libcpmt:locale0.obj
 0001:0002e7f8       ?_Init@locale@std@@CAPAV_Locimp@12@XZ 1002f7f8 f   libcpmt:locale0.obj
 0001:0002e892       ?_Locinfo_ctor@_Locinfo@std@@SAXPAV12@PBD@Z 1002f892 f   libcpmt:locale0.obj
 0001:0002e8dc       ?classic@locale@std@@SAABV12@XZ 1002f8dc f   libcpmt:locale0.obj
 0001:0002e8e7       ?empty@locale@std@@SA?AV12@XZ 1002f8e7 f   libcpmt:locale0.obj
 0001:0002e929       ?_Callfns@ios_base@std@@AAEXW4event@12@@Z 1002f929 f i libcpmt:ios.obj
 0001:0002e94b       ?_Tidy@ios_base@std@@AAAXXZ 1002f94b f i libcpmt:ios.obj
 0001:0002e991       ?_Fpz_func@std@@YAAA_JXZ   1002f991 f   libcpmt:ios.obj
 0001:0002e997       ?_BADOFF_func@std@@YAABJXZ 1002f997 f   libcpmt:ios.obj
 0001:0002e99d       ?_Index_func@ios_base@std@@CAAAHXZ 1002f99d f   libcpmt:ios.obj
 0001:0002e9a3       ?_Sync_func@ios_base@std@@CAAA_NXZ 1002f9a3 f   libcpmt:ios.obj
 0001:0002e9a9       ?_Addstd@ios_base@std@@SAXPAV12@@Z 1002f9a9 f   libcpmt:ios.obj
 0001:0002e9f9       ?_Ios_base_dtor@ios_base@std@@CAXPAV12@@Z 1002f9f9 f   libcpmt:ios.obj
 0001:0002ea37       ??0_Mutex@std@@QAE@XZ      1002fa37 f   libcpmt:xmutex.obj
 0001:0002ea4f       ??1_Mutex@std@@QAE@XZ      1002fa4f f   libcpmt:xmutex.obj
 0001:0002ea64       ?_Lock@_Mutex@std@@QAEXXZ  1002fa64 f   libcpmt:xmutex.obj
 0001:0002ea6d       ?_Unlock@_Mutex@std@@QAEXXZ 1002fa6d f   libcpmt:xmutex.obj
 0001:0002ea76       ?_Mutex_ctor@_Mutex@std@@CAXPAV12@@Z 1002fa76 f   libcpmt:xmutex.obj
 0001:0002ea8c       ?_Mutex_dtor@_Mutex@std@@CAXPAV12@@Z 1002fa8c f   libcpmt:xmutex.obj
 0001:0002eaa3       ?_Mutex_Lock@_Mutex@std@@CAXPAV12@@Z 1002faa3 f   libcpmt:xmutex.obj
 0001:0002eab0       ?_Mutex_Unlock@_Mutex@std@@CAXPAV12@@Z 1002fab0 f   libcpmt:xmutex.obj
 0001:0002eabd       ??0invalid_argument@std@@QAE@ABV?$basic_string@DU?$char_traits@D@std@@V?$allocator@D@2@@1@@Z 1002fabd f i libcpmt:string.obj
 0001:0002ead5       ??1invalid_argument@std@@UAE@XZ 1002fad5 f i libcpmt:string.obj
 0001:0002eae0       ??_Ginvalid_argument@std@@UAEPAXI@Z 1002fae0 f i libcpmt:string.obj
 0001:0002eae0       ??_Einvalid_argument@std@@UAEPAXI@Z 1002fae0 f i libcpmt:string.obj
 0001:0002eb02       ?_Xlen@_String_base@std@@SAXXZ 1002fb02 f   libcpmt:string.obj
 0001:0002eb41       ?_Xran@_String_base@std@@SAXXZ 1002fb41 f   libcpmt:string.obj
 0001:0002eb80       ?_Xinvarg@_String_base@std@@SAXXZ 1002fb80 f   libcpmt:string.obj
 0001:0002ebbf       ??0invalid_argument@std@@QAE@ABV01@@Z 1002fbbf f i libcpmt:string.obj
 0001:0002ebd7       __Toupper                  1002fbd7 f   libcpmt:_toupper.obj
 0001:0002eceb       ??_U@YAPAXI@Z              1002fceb f   libcpmt:newaop.obj
 0001:0002ecf0       __invoke_watson_if_error   1002fcf0 f i libcpmt:fiopen.obj
 0001:0002ed12       ?_Xfsopen@std@@YAPAU_iobuf@@PB_W0H@Z 1002fd12 f   libcpmt:fiopen.obj
 0001:0002edc7       ?_Fiopen@std@@YAPAU_iobuf@@PB_WHH@Z 1002fdc7 f   libcpmt:fiopen.obj
 0001:0002ee7c       ?_Fiopen@std@@YAPAU_iobuf@@PBGHH@Z 1002fe7c f   libcpmt:fiopen.obj
 0001:0002ee81       ?_Fiopen@std@@YAPAU_iobuf@@PBDHH@Z 1002fe81 f   libcpmt:fiopen.obj
 0001:0002eedc       ?uncaught_exception@std@@YA_NXZ 1002fedc f   libcpmt:uncaught.obj
 0001:0002ef21       __GetLocaleForCP           1002ff21 f   libcpmt:xmbtowc.obj
 0001:0002f004       __Mbrtowc                  10030004 f   libcpmt:xmbtowc.obj
 0001:0002f175       __Once                     10030175 f   libcpmt:xmtx.obj
 0001:0002f1ac       __Mtxinit                  100301ac f   libcpmt:xmtx.obj
 0001:0002f1b7       __Mtxdst                   100301b7 f   libcpmt:xmtx.obj
 0001:0002f1c2       __Mtxlock                  100301c2 f   libcpmt:xmtx.obj
 0001:0002f1cd       __Mtxunlock                100301cd f   libcpmt:xmtx.obj
 0001:0002f1d8       ?_Atexit@@YAXP6AXXZ@Z      100301d8 f   libcpmt:iosptrs.obj
 0001:0002f1f8       ??1_Init_atexit@@QAE@XZ    100301f8 f i libcpmt:iosptrs.obj
 0001:0002f21e       _Direct3DCreate9@4         1003021e f   d3d9:d3d9.dll
 0001:0002f230       _DetourRemove@8            10030230 f   detours:detours.obj
 0001:0002f390       ??0CDetourEnableWriteOnCodePage@@QAE@PAEJ@Z 10030390 f i detours:detours.obj
 0001:0002f410       ??1CDetourEnableWriteOnCodePage@@QAE@XZ 10030410 f i detours:detours.obj
 0001:0002f480       _DetourFunction@8          10030480 f   detours:detours.obj
 0001:0002f770       ?SetPermission@CDetourEnableWriteOnCodePage@@QAEHK@Z 10030770 f i detours:detours.obj
 0001:0002f7b0       ?IsValid@CDetourEnableWriteOnCodePage@@QAEHXZ 100307b0 f i detours:detours.obj
 0001:0002f850       ?DetourGenJmp@@YAPAEPAE00@Z 10030850 f i detours:detours.obj
 0001:0002f890       ?DetourGenBreak@@YAPAEPAE@Z 10030890 f i detours:detours.obj
 0001:0002f8b0       _DetourFunctionWithEmptyTrampoline@12 100308b0 f   detours:detours.obj
 0001:0002f8d0       _DetourFunctionWithEmptyTrampolineEx@24 100308d0 f   detours:detours.obj
 0001:0002f980       _DetourFunctionWithTrampoline@8 10030980 f   detours:detours.obj
 0001:0002f9a0       _DetourFunctionWithTrampolineEx@16 100309a0 f   detours:detours.obj
 0001:0002fa90       ?DetourLoadImageHlp@@YAPAU_DETOUR_SYM_INFO@@XZ 10030a90 f   detours:detours.obj
 0001:0002fc50       _DetourGetFinalCode@8      10030c50 f   detours:detours.obj
 0001:0002fcc0       _DetourFindFunction@8      10030cc0 f   detours:detours.obj
 0001:0002fe60       _DetourEnumerateModules@4  10030e60 f   detours:detours.obj
 0001:0002ff70       _DetourGetEntryPoint@4     10030f70 f   detours:detours.obj
 0001:000300a0       _DetourEnumerateExports@12 100310a0 f   detours:detours.obj
 0001:00030300       _DetourGetSizeOfPayloads@4 10031300 f   detours:detours.obj
 0001:000305b0       _DetourFindPayload@12      100315b0 f   detours:detours.obj
 0001:00030710       _==                        10031710 f i detours:detours.obj
 0001:00030730       _IsEqualGUID               10031730 f i detours:detours.obj
 0001:00030750       _DetourCopyInstructionEx@16 10031750 f   detours:disasm.obj
 0001:00030780       _DetourCopyInstruction@12  10031780 f   detours:disasm.obj
 0001:000307b0       ??0CDetourDis@@QAE@PAPAEPAJ@Z 100317b0 f   detours:disasm.obj
 0001:00030830       ?Set16BitOperand@CDetourDis@@IAEXXZ 10031830 f   detours:disasm.obj
 0001:00030850       ?Set32BitOperand@CDetourDis@@IAEXXZ 10031850 f   detours:disasm.obj
 0001:00030870       ?Set16BitAddress@CDetourDis@@IAEXXZ 10031870 f   detours:disasm.obj
 0001:00030890       ?Set32BitAddress@CDetourDis@@IAEXXZ 10031890 f   detours:disasm.obj
 0001:000308b0       ?CopyInstruction@CDetourDis@@QAEPAEPAE0@Z 100318b0 f   detours:disasm.obj
 0001:00030910       ?CopyBytes@CDetourDis@@IAEPAEPBUCOPYENTRY@1@PAE1@Z 10031910 f   detours:disasm.obj
 0001:00030af0       ?CopyBytesPrefix@CDetourDis@@IAEPAEPBUCOPYENTRY@1@PAE1@Z 10031af0 f   detours:disasm.obj
 0001:00030b40       ?AdjustTarget@CDetourDis@@IAEPAEPAE0JJ@Z 10031b40 f   detours:disasm.obj
 0001:00030c20       ?Invalid@CDetourDis@@IAEPAEPBUCOPYENTRY@1@PAE1@Z 10031c20 f   detours:disasm.obj
 0001:00030c40       ?Copy0F@CDetourDis@@IAEPAEPBUCOPYENTRY@1@PAE1@Z 10031c40 f   detours:disasm.obj
 0001:00030c90       ?Copy66@CDetourDis@@IAEPAEPBUCOPYENTRY@1@PAE1@Z 10031c90 f   detours:disasm.obj
 0001:00030cc0       ?Copy67@CDetourDis@@IAEPAEPBUCOPYENTRY@1@PAE1@Z 10031cc0 f   detours:disasm.obj
 0001:00030cf0       ?CopyF6@CDetourDis@@IAEPAEPBUCOPYENTRY@1@PAE1@Z 10031cf0 f   detours:disasm.obj
 0001:00030d50       ?CopyF7@CDetourDis@@IAEPAEPBUCOPYENTRY@1@PAE1@Z 10031d50 f   detours:disasm.obj
 0001:00030db0       ?CopyFF@CDetourDis@@IAEPAEPBUCOPYENTRY@1@PAE1@Z 10031db0 f   detours:disasm.obj
 0001:00030e60       ?SanityCheckSystem@CDetourDis@@SAHXZ 10031e60 f   detours:disasm.obj
 0001:00030f04       _SetRect@20                10031f04 f   user32:USER32.dll
 0001:00030f0a       _GetAsyncKeyState@4        10031f0a f   user32:USER32.dll
 0001:00030f10       _MessageBoxA@16            10031f10 f   user32:USER32.dll
 0001:00030f16       _DefWindowProcA@16         10031f16 f   user32:USER32.dll
 0001:00030f1c       _DestroyWindow@4           10031f1c f   user32:USER32.dll
 0001:00030f22       _CreateWindowExA@48        10031f22 f   user32:USER32.dll
 0001:00030f28       _GetDesktopWindow@0        10031f28 f   user32:USER32.dll
 0001:00030f2e       _RegisterClassExA@4        10031f2e f   user32:USER32.dll
 0001:00030f34       _mouse_event@20            10031f34 f   user32:USER32.dll
 0001:00030f3a       _GetCursorPos@4            10031f3a f   user32:USER32.dll
 0001:00030f40       ??0exception@std@@QAE@XZ   10031f40 f   LIBCMT:stdexcpt.obj
 0001:00030f51       ??0exception@std@@QAE@ABQBD@Z 10031f51 f   LIBCMT:stdexcpt.obj
 0001:00030f9f       ??0exception@std@@QAE@ABQBDH@Z 10031f9f f   LIBCMT:stdexcpt.obj
 0001:00030fb7       ??0exception@std@@QAE@ABV01@@Z 10031fb7 f   LIBCMT:stdexcpt.obj
 0001:0003100f       ??4exception@std@@QAEAAV01@ABV01@@Z 1003200f f   LIBCMT:stdexcpt.obj
 0001:00031065       ??1exception@std@@UAE@XZ   10032065 f   LIBCMT:stdexcpt.obj
 0001:0003107b       ?what@exception@std@@UBEPBDXZ 1003207b f   LIBCMT:stdexcpt.obj
 0001:00031088       ??0bad_cast@std@@QAE@PBD@Z 10032088 f   LIBCMT:stdexcpt.obj
 0001:000310a1       ??0bad_cast@std@@QAE@ABV01@@Z 100320a1 f   LIBCMT:stdexcpt.obj
 0001:000310b9       ??1bad_cast@std@@UAE@XZ    100320b9 f   LIBCMT:stdexcpt.obj
 0001:000310c4       ??0bad_typeid@std@@QAE@PBD@Z 100320c4 f   LIBCMT:stdexcpt.obj
 0001:000310dd       ??0bad_typeid@std@@QAE@ABV01@@Z 100320dd f   LIBCMT:stdexcpt.obj
 0001:000310f5       ??1bad_typeid@std@@UAE@XZ  100320f5 f   LIBCMT:stdexcpt.obj
 0001:00031100       ??0__non_rtti_object@std@@QAE@PBD@Z 10032100 f   LIBCMT:stdexcpt.obj
 0001:00031118       ??0__non_rtti_object@std@@QAE@ABV01@@Z 10032118 f   LIBCMT:stdexcpt.obj
 0001:00031130       ??1__non_rtti_object@std@@UAE@XZ 10032130 f   LIBCMT:stdexcpt.obj
 0001:0003113b       ??_Gexception@std@@UAEPAXI@Z 1003213b f i LIBCMT:stdexcpt.obj
 0001:0003113b       ??_Eexception@std@@UAEPAXI@Z 1003213b f i LIBCMT:stdexcpt.obj
 0001:00031157       ??_Ebad_cast@std@@UAEPAXI@Z 10032157 f i LIBCMT:stdexcpt.obj
 0001:00031157       ??_Gbad_cast@std@@UAEPAXI@Z 10032157 f i LIBCMT:stdexcpt.obj
 0001:00031179       ??_Gbad_typeid@std@@UAEPAXI@Z 10032179 f i LIBCMT:stdexcpt.obj
 0001:00031179       ??_Ebad_typeid@std@@UAEPAXI@Z 10032179 f i LIBCMT:stdexcpt.obj
 0001:0003119b       ??_E__non_rtti_object@std@@UAEPAXI@Z 1003219b f i LIBCMT:stdexcpt.obj
 0001:0003119b       ??_G__non_rtti_object@std@@UAEPAXI@Z 1003219b f i LIBCMT:stdexcpt.obj
 0001:000311bd       ?name@type_info@@QBEPBDPAU__type_info_node@@@Z 100321bd f   LIBCMT:typinfo.obj
 0001:000311cc       ??1type_info@@UAE@XZ       100321cc f   LIBCMT:typinfo.obj
 0001:000311da       ??_Gtype_info@@UAEPAXI@Z   100321da f i LIBCMT:typinfo.obj
 0001:000311da       ??_Etype_info@@UAEPAXI@Z   100321da f i LIBCMT:typinfo.obj
 0001:000311f6       ?_name_internal_method@type_info@@QBEPBDPAU__type_info_node@@@Z 100321f6 f   LIBCMT:typinfo.obj
 0001:00031205       ?_type_info_dtor_internal_method@type_info@@QAEXXZ 10032205 f   LIBCMT:typinfo.obj
 0001:0003120d       ??8type_info@@QBE_NABV0@@Z 1003220d f   LIBCMT:typinfo.obj
 0001:00031228       ??9type_info@@QBE_NABV0@@Z 10032228 f   LIBCMT:typinfo.obj
 0001:00031244       ?before@type_info@@QBEHABV1@@Z 10032244 f   LIBCMT:typinfo.obj
 0001:00031263       ?raw_name@type_info@@QBEPBDXZ 10032263 f   LIBCMT:typinfo.obj
 0001:00031267       ??0type_info@@AAE@ABV0@@Z  10032267 f   LIBCMT:typinfo.obj
 0001:00031272       ??4type_info@@AAEAAV0@ABV0@@Z 10032272 f   LIBCMT:typinfo.obj
 0001:00031277       ??3@YAXPAX@Z               10032277 f   LIBCMT:delete.obj
 0001:0003127c       _memcpy_s                  1003227c f   LIBCMT:memcpy_s.obj
 0001:000312f7       _memmove_s                 100322f7 f   LIBCMT:memmove_s.obj
 0001:00031360       _memset                    10032360 f   LIBCMT:memset.obj
 0001:000313da       ??_V@YAXPAX@Z              100323da f   LIBCMT:delete2.obj
 0001:000313df       _free                      100323df f   LIBCMT:free.obj
 0001:0003146d       __fpclear                  1003246d f   LIBCMT:fpinit.obj
 0001:0003146e       __cfltcvt_init             1003246e f   LIBCMT:fpinit.obj
 0001:000314ce       ___setfflag                100324ce f   LIBCMT:fpinit.obj
 0001:000314de       __fpmath                   100324de f   LIBCMT:fpinit.obj
 0001:00031500       _acos                      10032500 f   LIBCMT:acos.obj
 0001:00031540       __CIacos                   10032540 f   LIBCMT:acos.obj
 0001:0003157b       __CIacos_default           1003257b f   LIBCMT:acos.obj
 0001:0003158f       __acos_default             1003258f     LIBCMT:acos.obj
 0001:00031650       _asin                      10032650 f   LIBCMT:asin.obj
 0001:00031690       __CIasin                   10032690 f   LIBCMT:asin.obj
 0001:000316cb       __CIasin_default           100326cb f   LIBCMT:asin.obj
 0001:000316df       __asin_default             100326df     LIBCMT:asin.obj
 0001:000317a0       _atan                      100327a0 f   LIBCMT:atan.obj
 0001:000317e0       __CIatan                   100327e0 f   LIBCMT:atan.obj
 0001:0003181b       __CIatan_default           1003281b f   LIBCMT:atan.obj
 0001:0003182f       __atan_default             1003282f     LIBCMT:atan.obj
 0001:000318c0       _atan2                     100328c0 f   LIBCMT:87ctriga.obj
 0001:000318ca       __CIatan2                  100328ca f   LIBCMT:87ctriga.obj
 0001:000318e0       _cos                       100328e0 f   LIBCMT:cos.obj
 0001:00031920       __CIcos                    10032920 f   LIBCMT:cos.obj
 0001:0003195b       __CIcos_default            1003295b f   LIBCMT:cos.obj
 0001:0003196f       __cos_default              1003296f     LIBCMT:cos.obj
 0001:00031a10       _floor                     10032a10 f   LIBCMT:floor_pentium4.obj
 0001:00031a50       __floor_pentium4           10032a50 f   LIBCMT:floor_pentium4.obj
 0001:00031b40       _sin                       10032b40 f   LIBCMT:sin.obj
 0001:00031b80       __CIsin                    10032b80 f   LIBCMT:sin.obj
 0001:00031bbb       __CIsin_default            10032bbb f   LIBCMT:sin.obj
 0001:00031bcf       __sin_default              10032bcf     LIBCMT:sin.obj
 0001:00031c70       __CIsqrt                   10032c70 f   LIBCMT:sqrt.obj
 0001:00031c84       _sqrt                      10032c84     LIBCMT:sqrt.obj
 0001:00031d30       _tan                       10032d30 f   LIBCMT:tan.obj
 0001:00031d70       __CItan                    10032d70 f   LIBCMT:tan.obj
 0001:00031dab       __CItan_default            10032dab f   LIBCMT:tan.obj
 0001:00031dbf       __tan_default              10032dbf     LIBCMT:tan.obj
 0001:00031e5d       @__security_check_cookie@4 10032e5d f   LIBCMT:secchk.obj
 0001:00031e70       __ftol2_sse                10032e70 f   LIBCMT:ftol2.obj
 0001:00031e79       __ftol2_pentium4           10032e79 f   LIBCMT:ftol2.obj
 0001:00031e8c       __ftol2_sse_excpt          10032e8c f   LIBCMT:ftol2.obj
 0001:00031ea6       __ftol2                    10032ea6 f   LIBCMT:ftol2.obj
 0001:00031f1b       _sprintf                   10032f1b f   LIBCMT:sprintf.obj
 0001:00031f96       __sprintf_l                10032f96 f   LIBCMT:sprintf.obj
 0001:00031fb0       _sprintf_s                 10032fb0 f   LIBCMT:sprintf.obj
 0001:00031fcc       __sprintf_s_l              10032fcc f   LIBCMT:sprintf.obj
 0001:00031fe9       __snprintf_s               10032fe9 f   LIBCMT:sprintf.obj
 0001:00032008       __snprintf_s_l             10033008 f   LIBCMT:sprintf.obj
 0001:00032028       __sprintf_p                10033028 f   LIBCMT:sprintf.obj
 0001:00032044       __sprintf_p_l              10033044 f   LIBCMT:sprintf.obj
 0001:00032061       __scprintf                 10033061 f   LIBCMT:sprintf.obj
 0001:00032072       __scprintf_p               10033072 f   LIBCMT:sprintf.obj
 0001:00032083       __scprintf_l               10033083 f   LIBCMT:sprintf.obj
 0001:00032099       __scprintf_p_l             10033099 f   LIBCMT:sprintf.obj
 0001:000320b0       _memcpy                    100330b0 f   LIBCMT:memcpy.obj
 0001:00032415       _strncmp                   10033415 f   LIBCMT:strncmp.obj
 0001:000324d3       ??0_LocaleUpdate@@QAE@PAUlocaleinfo_struct@@@Z 100334d3 f i LIBCMT:atof.obj
 0001:00032555       ??1_LocaleUpdate@@QAE@XZ   10033555 f i LIBCMT:atof.obj
 0001:00032563       ?GetLocaleT@_LocaleUpdate@@QAEPAUlocaleinfo_struct@@XZ 10033563 f i LIBCMT:atof.obj
 0001:00032566       __atof_l                   10033566 f   LIBCMT:atof.obj
 0001:0003260f       _atof                      1003360f f   LIBCMT:atof.obj
 0001:0003261d       ___strgtold12              1003361d f   LIBCMT:atof.obj
 0001:0003265d       ___STRINGTOLD              1003365d f   LIBCMT:atof.obj
 0001:00032694       __initp_misc_invarg        10033694 f   LIBCMT:invarg.obj
 0001:0003269e       __invoke_watson            1003369e f   LIBCMT:invarg.obj
 0001:0003279a       __set_invalid_parameter_handler 1003379a f   LIBCMT:invarg.obj
 0001:000327bc       __get_invalid_parameter_handler 100337bc f   LIBCMT:invarg.obj
 0001:000327c9       ?_invoke_watson@@YAXPBG00II@Z 100337c9 f   LIBCMT:invarg.obj
 0001:000327d2       __invalid_parameter        100337d2 f   LIBCMT:invarg.obj
 0001:000327f6       __invalid_parameter_noinfo 100337f6 f   LIBCMT:invarg.obj
 0001:00032806       ?_invalid_parameter@@YAXPBG00II@Z 10033806 f   LIBCMT:invarg.obj
 0001:0003280f       __vsnprintf_helper         1003380f f   LIBCMT:vsnprnc.obj
 0001:000328d9       __vsnprintf_c              100338d9 f   LIBCMT:vsnprnc.obj
 0001:00032900       __vsnprintf_c_l            10033900 f   LIBCMT:vsnprnc.obj
 0001:00032928       __vsprintf_s_l             10033928 f   LIBCMT:vsnprnc.obj
 0001:000329ae       _vsprintf_s                100339ae f   LIBCMT:vsnprnc.obj
 0001:000329c9       __vsnprintf_s_l            100339c9 f   LIBCMT:vsnprnc.obj
 0001:00032ace       __vsnprintf_s              10033ace f   LIBCMT:vsnprnc.obj
 0001:00032aec       __vsprintf_p               10033aec f   LIBCMT:vsnprnc.obj
 0001:00032b13       __vsprintf_p_l             10033b13 f   LIBCMT:vsnprnc.obj
 0001:00032b3b       ??0bad_alloc@std@@QAE@XZ   10033b3b f i LIBCMT:new.obj
 0001:00032b54       ??2@YAPAXI@Z               10033b54 f   LIBCMT:new.obj
 0001:00032bbe       __CxxThrowException@8      10033bbe f   LIBCMT:throw.obj
 0001:00032c08       ?_JumpToContinuation@@YGXPAXPAUEHRegistrationNode@@@Z 10033c08 f   LIBCMT:trnsctrl.obj
 0001:00032c38       ?_CallMemberFunction0@@YGXPAX0@Z 10033c38 f   LIBCMT:trnsctrl.obj
 0001:00032c3f       ?_CallMemberFunction1@@YGXPAX00@Z 10033c3f f   LIBCMT:trnsctrl.obj
 0001:00032c46       ?_CallMemberFunction2@@YGXPAX00H@Z 10033c46 f   LIBCMT:trnsctrl.obj
 0001:00032c4d       ?_UnwindNestedFrames@@YGXPAUEHRegistrationNode@@PAUEHExceptionRecord@@@Z 10033c4d f   LIBCMT:trnsctrl.obj
 0001:00032c9f       ___CxxFrameHandler         10033c9f f   LIBCMT:trnsctrl.obj
 0001:00032cd5       ___CxxFrameHandler3        10033cd5 f   LIBCMT:trnsctrl.obj
 0001:00032d0b       ___CxxFrameHandler2        10033d0b f   LIBCMT:trnsctrl.obj
 0001:00032d41       ___CxxLongjmpUnwind@4      10033d41 f   LIBCMT:trnsctrl.obj
 0001:00032d8b       ?_CallSETranslator@@YAHPAUEHExceptionRecord@@PAUEHRegistrationNode@@PAX2PBU_s_FuncInfo@@H1@Z 10033d8b f   LIBCMT:trnsctrl.obj
 0001:00032efd       ?_GetRangeOfTrysToCheck@@YAPBU_s_TryBlockMapEntry@@PBU_s_FuncInfo@@HHPAI1@Z 10033efd f   LIBCMT:trnsctrl.obj
 0001:00032f70       __CreateFrameInfo          10033f70 f   LIBCMT:trnsctrl.obj
 0001:00032f98       __IsExceptionObjectToBeDestroyed 10033f98 f   LIBCMT:trnsctrl.obj
 0001:00032fb9       __FindAndUnlinkFrame       10033fb9 f   LIBCMT:trnsctrl.obj
 0001:00033005       ?_CallCatchBlock2@@YAPAXPAUEHRegistrationNode@@PBU_s_FuncInfo@@PAXHK@Z 10034005 f   LIBCMT:trnsctrl.obj
 0001:00033063       _fgetc                     10034063 f   LIBCMT:fgetc.obj
 0001:0003319a       _getc                      1003419a f   LIBCMT:fgetc.obj
 0001:000332d1       __getc_nolock              100342d1 f   LIBCMT:fgetc.obj
 0001:000332eb       _fputc                     100342eb f   LIBCMT:fputc.obj
 0001:0003342a       _putc                      1003442a f   LIBCMT:fputc.obj
 0001:00033569       __ungetc_nolock            10034569 f   LIBCMT:ungetc.obj
 0001:00033687       _ungetc                    10034687 f   LIBCMT:ungetc.obj
 0001:000336f9       __flush                    100346f9 f   LIBCMT:fflush.obj
 0001:0003375b       __fflush_nolock            1003475b f   LIBCMT:fflush.obj
 0001:00033877       _fflush                    10034877 f   LIBCMT:fflush.obj
 0001:000338ca       __flushall                 100348ca f   LIBCMT:fflush.obj
 0001:000338d3       _setvbuf                   100348d3 f   LIBCMT:setvbuf.obj
 0001:000339d1       __fwrite_nolock            100349d1 f   LIBCMT:fwrite.obj
 0001:00033aeb       _fwrite                    10034aeb f   LIBCMT:fwrite.obj
 0001:00033b78       _fgetpos                   10034b78 f   LIBCMT:fgetpos.obj
 0001:00033be3       __fseek_nolock             10034be3 f   LIBCMT:fseek.obj
 0001:00033c6a       _fseek                     10034c6a f   LIBCMT:fseek.obj
 0001:00033cef       _fsetpos                   10034cef f   LIBCMT:fsetpos.obj
 0001:00033d31       __fclose_nolock            10034d31 f   LIBCMT:fclose.obj
 0001:00033da4       _fclose                    10034da4 f   LIBCMT:fclose.obj
 0001:00033e20       _strstr                    10034e20 f   LIBCMT:strstr.obj
 0001:00033ea6       _localeconv                10034ea6 f   LIBCMT:lconv.obj
 0001:00033ed0       _memchr                    10034ed0 f   LIBCMT:memchr.obj
 0001:00033f80       _strcspn                   10034f80 f   LIBCMT:strcspn.obj
 0001:00034073       ___onexitinit              10035073 f   LIBCMT:onexit.obj
 0001:000340a2       __onexit                   100350a2 f   LIBCMT:onexit.obj
 0001:000340de       _atexit                    100350de f   LIBCMT:onexit.obj
 0001:000340f0       __set_osplatform           100350f0 f i LIBCMT:dllcrt0.obj
 0001:000340fa       __set_osver                100350fa f i LIBCMT:dllcrt0.obj
 0001:00034104       __set_winver               10035104 f i LIBCMT:dllcrt0.obj
 0001:0003410e       __set_winmajor             1003510e f i LIBCMT:dllcrt0.obj
 0001:00034118       __set_winminor             10035118 f i LIBCMT:dllcrt0.obj
 0001:00034122       __CRT_INIT@12              10035122 f   LIBCMT:dllcrt0.obj
 0001:000343f1       __DllMainCRTStartup@12     100353f1 f   LIBCMT:dllcrt0.obj
 0001:00034412       __MarkAllocaS              10035412 f i LIBCMT:a_map.obj
 0001:00034424       __freea                    10035424 f i LIBCMT:a_map.obj
 0001:000347fb       ___crtLCMapStringA         100357fb f   LIBCMT:a_map.obj
 0001:0003483e       ___pwctype_func            1003583e f   LIBCMT:ctype.obj
 0001:00034844       ___pctype_func             10035844 f   LIBCMT:ctype.obj
 0001:0003486d       __isalpha_l                1003586d f i LIBCMT:_ctype.obj
 0001:000348c1       _isalpha                   100358c1 f i LIBCMT:_ctype.obj
 0001:000348ec       __isupper_l                100358ec f i LIBCMT:_ctype.obj
 0001:0003493b       _isupper                   1003593b f i LIBCMT:_ctype.obj
 0001:00034964       __islower_l                10035964 f i LIBCMT:_ctype.obj
 0001:000349b3       _islower                   100359b3 f i LIBCMT:_ctype.obj
 0001:000349dc       __isdigit_l                100359dc f i LIBCMT:_ctype.obj
 0001:00034a2b       _isdigit                   10035a2b f i LIBCMT:_ctype.obj
 0001:00034a54       __isxdigit_l               10035a54 f i LIBCMT:_ctype.obj
 0001:00034aa8       _isxdigit                  10035aa8 f i LIBCMT:_ctype.obj
 0001:00034ad3       __isspace_l                10035ad3 f i LIBCMT:_ctype.obj
 0001:00034b22       _isspace                   10035b22 f i LIBCMT:_ctype.obj
 0001:00034b4b       __ispunct_l                10035b4b f i LIBCMT:_ctype.obj
 0001:00034b9a       _ispunct                   10035b9a f i LIBCMT:_ctype.obj
 0001:00034bc3       __isalnum_l                10035bc3 f i LIBCMT:_ctype.obj
 0001:00034c17       _isalnum                   10035c17 f i LIBCMT:_ctype.obj
 0001:00034c42       __isprint_l                10035c42 f i LIBCMT:_ctype.obj
 0001:00034c96       _isprint                   10035c96 f i LIBCMT:_ctype.obj
 0001:00034cc1       __isgraph_l                10035cc1 f i LIBCMT:_ctype.obj
 0001:00034d15       _isgraph                   10035d15 f i LIBCMT:_ctype.obj
 0001:00034d40       __iscntrl_l                10035d40 f i LIBCMT:_ctype.obj
 0001:00034d8f       _iscntrl                   10035d8f f i LIBCMT:_ctype.obj
 0001:00034db8       ___isascii                 10035db8 f i LIBCMT:_ctype.obj
 0001:00034dc5       ___toascii                 10035dc5 f i LIBCMT:_ctype.obj
 0001:00034dcd       __iscsymf_l                10035dcd f i LIBCMT:_ctype.obj
 0001:00034dec       ___iscsymf                 10035dec f i LIBCMT:_ctype.obj
 0001:00034e06       __iscsym_l                 10035e06 f i LIBCMT:_ctype.obj
 0001:00034e25       ___iscsym                  10035e25 f i LIBCMT:_ctype.obj
 0001:00034e41       ___init_ctype              10035e41 f   LIBCMT:initctyp.obj
 0001:000351d6       ____mb_cur_max_func        100361d6 f   LIBCMT:initctyp.obj
 0001:000351ff       ____mb_cur_max_l_func      100361ff f   LIBCMT:initctyp.obj
 0001:00035215       ____lc_codepage_func       10036215 f   LIBCMT:initctyp.obj
 0001:0003523b       ____lc_collate_cp_func     1003623b f   LIBCMT:initctyp.obj
 0001:00035261       ____lc_handle_func         10036261 f   LIBCMT:initctyp.obj
 0001:00035287       _wait_a_bit                10036287 f i LIBCMT:crtheap.obj
 0001:000352a8       __set_malloc_crt_max_wait  100362a8 f   LIBCMT:crtheap.obj
 0001:000352b8       __malloc_crt               100362b8 f   LIBCMT:crtheap.obj
 0001:000352f8       __calloc_crt               100362f8 f   LIBCMT:crtheap.obj
 0001:00035340       __realloc_crt              10036340 f   LIBCMT:crtheap.obj
 0001:0003538b       __recalloc_crt             1003638b f   LIBCMT:crtheap.obj
 0001:000353db       @_malloc_crt_fastcall@4    100363db f   LIBCMT:crtheap.obj
 0001:000353e3       @_calloc_crt_fastcall@8    100363e3 f   LIBCMT:crtheap.obj
 0001:000353ed       @_realloc_crt_fastcall@8   100363ed f   LIBCMT:crtheap.obj
 0001:000353f7       __get_errno_from_oserr     100363f7 f   LIBCMT:dosmap.obj
 0001:00035432       __errno                    10036432 f   LIBCMT:dosmap.obj
 0001:00035445       ___doserrno                10036445 f   LIBCMT:dosmap.obj
 0001:00035458       __dosmaperr                10036458 f   LIBCMT:dosmap.obj
 0001:00035476       __set_errno                10036476 f   LIBCMT:dosmap.obj
 0001:00035491       __get_errno                10036491 f   LIBCMT:dosmap.obj
 0001:000354bb       __set_doserrno             100364bb f   LIBCMT:dosmap.obj
 0001:000354d6       __get_doserrno             100364d6 f   LIBCMT:dosmap.obj
 0001:00035500       _strlen                    10036500 f   LIBCMT:strlen.obj
 0001:0003558b       __EH_prolog3               1003658b f   LIBCMT:ehprolg3.obj
 0001:000355be       __EH_prolog3_catch         100365be f   LIBCMT:ehprolg3.obj
 0001:000355f4       __EH_prolog3_GS            100365f4 f   LIBCMT:ehprolg3.obj
 0001:0003562a       __EH_prolog3_catch_GS      1003662a f   LIBCMT:ehprolg3.obj
 0001:00035663       __EH_epilog3               10036663 f   LIBCMT:ehprolg3.obj
 0001:00035677       __EH_epilog3_GS            10036677 f   LIBCMT:ehprolg3.obj
 0001:00035686       __EH_epilog3_catch_GS      10036686 f   LIBCMT:ehprolg3.obj
 0001:00035695       ____setlc_active_func      10036695 f   LIBCMT:setlocal.obj
 0001:0003569b       ____unguarded_readlc_active_add_func 1003669b f   LIBCMT:setlocal.obj
 0001:000356a1       ___freetlocinfo            100366a1 f   LIBCMT:setlocal.obj
 0001:000357e1       ___addlocaleref            100367e1 f   LIBCMT:setlocal.obj
 0001:00035867       ___removelocaleref         10036867 f   LIBCMT:setlocal.obj
 0001:00035955       ___updatetlocinfo          10036955 f   LIBCMT:setlocal.obj
 0001:000359cb       __configthreadlocale       100369cb f   LIBCMT:setlocal.obj
 0001:00035a84       __free_locale              10036a84 f   LIBCMT:setlocal.obj
 0001:00035b1a       ___free_locale             10036b1a f   LIBCMT:setlocal.obj
 0001:00035b1f       __get_current_locale       10036b1f f   LIBCMT:setlocal.obj
 0001:00035ba7       ___get_current_locale      10036ba7 f   LIBCMT:setlocal.obj
 0001:00035bac       ___init_dummy              10036bac f   LIBCMT:setlocal.obj
 0001:00035baf       __strcats                  10036baf f   LIBCMT:setlocal.obj
 0001:00035bed       ___lc_strtolc              10036bed f   LIBCMT:setlocal.obj
 0001:00035d16       ___lc_lctostr              10036d16 f   LIBCMT:setlocal.obj
 0001:00035ef2       __expandlocale             10036ef2 f   LIBCMT:setlocal.obj
 0001:0003658a       __create_locale            1003758a f   LIBCMT:setlocal.obj
 0001:0003667d       ___create_locale           1003767d f   LIBCMT:setlocal.obj
 0001:00036682       _setlocale                 10037682 f   LIBCMT:setlocal.obj
 0001:000367f2       __fsopen                   100377f2 f   LIBCMT:fopen.obj
 0001:000368b6       _fopen                     100378b6 f   LIBCMT:fopen.obj
 0001:000368c9       _fopen_s                   100378c9 f   LIBCMT:fopen.obj
 0001:00036948       __wcstombs_l_helper        10037948 f   LIBCMT:wcstombs.obj
 0001:00036b8e       __wcstombs_l               10037b8e f   LIBCMT:wcstombs.obj
 0001:00036b93       _wcstombs                  10037b93 f   LIBCMT:wcstombs.obj
 0001:00036baa       __wcstombs_s_l             10037baa f   LIBCMT:wcstombs.obj
 0001:00036c5b       _wcstombs_s                10037c5b f   LIBCMT:wcstombs.obj
 0001:00036c79       __wfsopen                  10037c79 f   LIBCMT:wfopen.obj
 0001:00036d3f       __wfopen                   10037d3f f   LIBCMT:wfopen.obj
 0001:00036d52       __wfopen_s                 10037d52 f   LIBCMT:wfopen.obj
 0001:00036da2       __amsg_exit                10037da2 f   LIBCMT:crt0dat.obj
 0001:00036dc6       ___crtCorExitProcess       10037dc6 f   LIBCMT:crt0dat.obj
 0001:00036dec       ___crtExitProcess          10037dec f   LIBCMT:crt0dat.obj
 0001:00036e01       __lockexit                 10037e01 f   LIBCMT:crt0dat.obj
 0001:00036e0a       __unlockexit               10037e0a f   LIBCMT:crt0dat.obj
 0001:00036e2b       __initterm_e               10037e2b f   LIBCMT:crt0dat.obj
 0001:00036e4b       __get_osplatform           10037e4b f   LIBCMT:crt0dat.obj
 0001:00036e82       __get_osver                10037e82 f   LIBCMT:crt0dat.obj
 0001:00036ebe       __get_winver               10037ebe f   LIBCMT:crt0dat.obj
 0001:00036efa       __get_winmajor             10037efa f   LIBCMT:crt0dat.obj
 0001:00036f36       __get_winminor             10037f36 f   LIBCMT:crt0dat.obj
 0001:00036f72       __get_wpgmptr              10037f72 f   LIBCMT:crt0dat.obj
 0001:00036fa9       __get_pgmptr               10037fa9 f   LIBCMT:crt0dat.obj
 0001:00036fe0       __cinit                    10037fe0 f   LIBCMT:crt0dat.obj
 0001:00037140       _exit                      10038140 f   LIBCMT:crt0dat.obj
 0001:00037151       __exit                     10038151 f   LIBCMT:crt0dat.obj
 0001:00037162       __cexit                    10038162 f   LIBCMT:crt0dat.obj
 0001:00037171       __c_exit                   10038171 f   LIBCMT:crt0dat.obj
 0001:00037180       __init_pointers            10038180 f   LIBCMT:crt0dat.obj
 0001:000371cc       __mbstowcs_l_helper        100381cc f   LIBCMT:mbstowcs.obj
 0001:00037354       __mbstowcs_l               10038354 f   LIBCMT:mbstowcs.obj
 0001:00037359       _mbstowcs                  10038359 f   LIBCMT:mbstowcs.obj
 0001:00037381       __mbstowcs_s_l             10038381 f   LIBCMT:mbstowcs.obj
 0001:00037477       _mbstowcs_s                10038477 f   LIBCMT:mbstowcs.obj
 0001:00037495       ??0bad_exception@std@@QAE@PBD@Z 10038495 f i LIBCMT:frame.obj
 0001:000374ae       ??1bad_exception@std@@UAE@XZ 100384ae f i LIBCMT:frame.obj
 0001:000374b9       ??_Ebad_exception@std@@UAEPAXI@Z 100384b9 f i LIBCMT:frame.obj
 0001:000374b9       ??_Gbad_exception@std@@UAEPAXI@Z 100384b9 f i LIBCMT:frame.obj
 0001:000374db       ___TypeMatch               100384db f   LIBCMT:frame.obj
 0001:00037537       ___FrameUnwindFilter       10038537 f   LIBCMT:frame.obj
 0001:0003757b       ___FrameUnwindToState      1003857b f   LIBCMT:frame.obj
 0001:000376a1       ___DestructExceptionObject 100386a1 f   LIBCMT:frame.obj
 0001:000376f5       ___AdjustPointer           100386f5 f   LIBCMT:frame.obj
 0001:0003771a       ?__uncaught_exception@@YA_NXZ 1003871a f   LIBCMT:frame.obj
 0001:0003772d       ___CxxRegisterExceptionObject 1003872d f   LIBCMT:frame.obj
 0001:000377e0       ___CxxDetectRethrow        100387e0 f   LIBCMT:frame.obj
 0001:0003782c       ___CxxUnregisterExceptionObject 1003882c f   LIBCMT:frame.obj
 0001:00037967       ___CxxQueryExceptionSize   10038967 f   LIBCMT:frame.obj
 0001:0003796b       ___CxxCallUnwindDtor       1003896b f   LIBCMT:frame.obj
 0001:0003799d       ___CxxCallUnwindDelDtor    1003899d f   LIBCMT:frame.obj
 0001:000379d0       ___CxxCallUnwindStdDelDtor 100389d0 f   LIBCMT:frame.obj
 0001:00037a02       ___CxxCallUnwindVecDtor    10038a02 f   LIBCMT:frame.obj
 0001:00037b2f       ?_is_exception_typeof@@YAHABVtype_info@@PAU_EXCEPTION_POINTERS@@@Z 10038b2f f   LIBCMT:frame.obj
 0001:00037d4d       ___BuildCatchObjectHelper  10038d4d f   LIBCMT:frame.obj
 0001:00037ecc       ___BuildCatchObject        10038ecc f   LIBCMT:frame.obj
 0001:00037f5d       ___CxxExceptionFilter      10038f5d f   LIBCMT:frame.obj
 0001:00038554       ??0bad_exception@std@@QAE@ABV01@@Z 10039554 f i LIBCMT:frame.obj
 0001:0003856c       ___InternalCxxFrameHandler 1003956c f   LIBCMT:frame.obj
 0001:0003872b       __itoa_s                   1003972b f   LIBCMT:xtoas.obj
 0001:00038753       __ltoa_s                   10039753 f   LIBCMT:xtoas.obj
 0001:00038778       __ultoa_s                  10039778 f   LIBCMT:xtoas.obj
 0001:00038886       __i64toa_s                 10039886 f   LIBCMT:xtoas.obj
 0001:000388b9       __ui64toa_s                100398b9 f   LIBCMT:xtoas.obj
 0001:000388d6       _abort                     100398d6 f   LIBCMT:abort.obj
 0001:000389c9       __set_abort_behavior       100399c9 f   LIBCMT:abort.obj
 0001:000389f0       _strcpy                    100399f0 f   LIBCMT:strcat.obj
 0001:00038a00       _strcat                    10039a00 f   LIBCMT:strcat.obj
 0001:00038ae8       __global_unwind2           10039ae8 f   LIBCMT:exsup.obj
 0001:00038b4d       __local_unwind2            10039b4d f   LIBCMT:exsup.obj
 0001:00038bd1       __abnormal_termination     10039bd1 f   LIBCMT:exsup.obj
 0001:00038bf4       __NLG_Notify1              10039bf4 f   LIBCMT:exsup.obj
 0001:00038bfd       __NLG_Notify               10039bfd f   LIBCMT:exsup.obj
 0001:00038c14       __NLG_Dispatch             10039c14     LIBCMT:exsup.obj
 0001:00038c14       __NLG_Dispatch2            10039c14     LIBCMT:exsup.obj
 0001:00038c1c       __NLG_Call                 10039c1c f   LIBCMT:exsup.obj
 0001:00038c1e       __NLG_Return2              10039c1e     LIBCMT:exsup.obj
 0001:00038c28       __except_handler3          10039c28 f   LIBCMT:exsup3.obj
 0001:00038d26       __seh_longjmp_unwind@4     10039d26 f   LIBCMT:exsup3.obj
 0001:00038d50       _strcmp                    10039d50 f   LIBCMT:strcmp.obj
 0001:0003a34a       _memcmp                    1003b34a f   LIBCMT:memcmp.obj
 0001:0003b9ca       _strcpy_s                  1003c9ca f   LIBCMT:strcpy_s.obj
 0001:0003ba2f       _V6_HeapAlloc              1003ca2f f   LIBCMT:malloc.obj
 0001:0003ba7e       __heap_alloc               1003ca7e f i LIBCMT:malloc.obj
 0001:0003baf3       _malloc                    1003caf3 f   LIBCMT:malloc.obj
 0001:0003bbb6       ?_Type_info_dtor@type_info@@CAXPAV1@@Z 1003cbb6 f   LIBCMT:typname.obj
 0001:0003bc26       ?_Name_base@type_info@@CAPBDPBV1@PAU__type_info_node@@@Z 1003cc26 f   LIBCMT:typname.obj
 0001:0003bd1b       ?_Type_info_dtor_internal@type_info@@CAXPAV1@@Z 1003cd1b f   LIBCMT:typname.obj
 0001:0003bd8b       ___unDNameHelper           1003cd8b f   LIBCMT:typname.obj
 0001:0003bdbc       ?_Name_base_internal@type_info@@CAPBDPBV1@PAU__type_info_node@@@Z 1003cdbc f   LIBCMT:typname.obj
 0001:0003bea7       ___clean_type_info_names_internal 1003cea7 f   LIBCMT:typname.obj
 0001:0003bf00       _memmove                   1003cf00 f   LIBCMT:memmove.obj
 0001:0003c2bc       __VEC_memzero              1003d2bc f   LIBCMT:p4_memset.obj
 0001:0003c34b       __sse2_mathfcns_init       1003d34b f   LIBCMT:mathfcns.obj
 0001:0003c35f       __set_SSE2_enable          1003d35f f   LIBCMT:mathfcns.obj
 0001:0003c373       ___heap_select             1003d373 f   LIBCMT:heapinit.obj
 0001:0003c3ce       __heap_init                1003d3ce f   LIBCMT:heapinit.obj
 0001:0003c428       __heap_term                1003d428 f   LIBCMT:heapinit.obj
 0001:0003c49c       __get_heap_handle          1003d49c f   LIBCMT:heapinit.obj
 0001:0003c4a2       __mtinitlocks              1003d4a2 f   LIBCMT:mlock.obj
 0001:0003c4eb       __mtdeletelocks            1003d4eb f   LIBCMT:mlock.obj
 0001:0003c540       __unlock                   1003d540 f   LIBCMT:mlock.obj
 0001:0003c555       __lockerr_exit             1003d555 f   LIBCMT:mlock.obj
 0001:0003c56d       __mtinitlocknum            1003d56d f   LIBCMT:mlock.obj
 0001:0003c630       __lock                     1003d630 f   LIBCMT:mlock.obj
 0001:0003c661       __get_sbh_threshold        1003d661 f   LIBCMT:sbheap.obj
 0001:0003c682       __set_amblksiz             1003d682 f   LIBCMT:sbheap.obj
 0001:0003c6c8       __get_amblksiz             1003d6c8 f   LIBCMT:sbheap.obj
 0001:0003c704       ___sbh_heap_init           1003d704 f   LIBCMT:sbheap.obj
 0001:0003c74c       ___sbh_find_block          1003d74c f   LIBCMT:sbheap.obj
 0001:0003c777       ___sbh_free_block          1003d777 f   LIBCMT:sbheap.obj
 0001:0003ca8b       ___sbh_alloc_new_region    1003da8b f   LIBCMT:sbheap.obj
 0001:0003cb3b       ___sbh_alloc_new_group     1003db3b f   LIBCMT:sbheap.obj
 0001:0003cc41       ___sbh_resize_block        1003dc41 f   LIBCMT:sbheap.obj
 0001:0003cf20       ___sbh_heapmin             1003df20 f   LIBCMT:sbheap.obj
 0001:0003cfed       ___sbh_heap_check          1003dfed f   LIBCMT:sbheap.obj
 0001:0003d2cf       __set_sbh_threshold        1003e2cf f   LIBCMT:sbheap.obj
 0001:0003d377       ___sbh_alloc_block         1003e377 f   LIBCMT:sbheap.obj
 0001:0003d65c       __SEH_prolog4              1003e65c f   LIBCMT:sehprolg4.obj
 0001:0003d6a1       __SEH_epilog4              1003e6a1 f   LIBCMT:sehprolg4.obj
 0001:0003d6f0       __except_handler4          1003e6f0 f   LIBCMT:chandler4.obj
 0001:0003d886       ?strrchr@@YAPADPADH@Z      1003e886 f i LIBCMT:cvt.obj
 0001:0003d88b       __forcdecpt_l              1003e88b f   LIBCMT:cvt.obj
 0001:0003d8fc       __cropzeros_l              1003e8fc f   LIBCMT:cvt.obj
 0001:0003d97c       __positive                 1003e97c f   LIBCMT:cvt.obj
 0001:0003d992       __fassign_l                1003e992 f   LIBCMT:cvt.obj
 0001:0003d9d2       __fassign                  1003e9d2 f   LIBCMT:cvt.obj
 0001:0003da06       __forcdecpt                1003ea06 f   LIBCMT:cvt.obj
 0001:0003da14       __cropzeros                1003ea14 f   LIBCMT:cvt.obj
 0001:0003db8f       __cftoe_l                  1003eb8f f   LIBCMT:cvt.obj
 0001:0003dc5d       __cftoe                    1003ec5d f   LIBCMT:cvt.obj
 0001:0003dc7b       __cftoa_l                  1003ec7b f   LIBCMT:cvt.obj
 0001:0003dfec       __cftoa                    1003efec f   LIBCMT:cvt.obj
 0001:0003e0ff       __cftof_l                  1003f0ff f   LIBCMT:cvt.obj
 0001:0003e1b8       __cftof                    1003f1b8 f   LIBCMT:cvt.obj
 0001:0003e1d3       __cftog_l                  1003f1d3 f   LIBCMT:cvt.obj
 0001:0003e2cb       __cftog                    1003f2cb f   LIBCMT:cvt.obj
 0001:0003e2e9       __cfltcvt_l                1003f2e9 f   LIBCMT:cvt.obj
 0001:0003e36f       __cfltcvt                  1003f36f f   LIBCMT:cvt.obj
 0001:0003e390       __initp_misc_cfltcvt_tab   1003f390 f   LIBCMT:cmiscdat.obj
 0001:0003e3af       __setdefaultprecision      1003f3af f   LIBCMT:fp8.obj
 0001:0003e3d8       __ms_p5_test_fdiv          1003f3d8 f   LIBCMT:testfdiv.obj
 0001:0003e414       __ms_p5_mp_test_fdiv       1003f414 f   LIBCMT:testfdiv.obj
 0001:0003e440       __CIacos_pentium4          1003f440 f   LIBCMT:acos_pentium4.obj
 0001:0003e458       __acos_pentium4            1003f458     LIBCMT:acos_pentium4.obj
 0001:0003e9a0       __trandisp1                1003f9a0 f   LIBCMT:87disp.obj
 0001:0003ea07       __trandisp2                1003fa07 f   LIBCMT:87disp.obj
 0001:0003ea93       __rttospopde               1003fa93     LIBCMT:87disp.obj
 0001:0003ea98       __rttospop                 1003fa98     LIBCMT:87disp.obj
 0001:0003ea9a       __rtnospop                 1003fa9a     LIBCMT:87disp.obj
 0001:0003ea9c       __rttosnpop                1003fa9c     LIBCMT:87disp.obj
 0001:0003ea9d       __rtnospopde               1003fa9d     LIBCMT:87disp.obj
 0001:0003eaa4       __rtzeropop                1003faa4     LIBCMT:87disp.obj
 0001:0003eaa6       __rtzeronpop               1003faa6     LIBCMT:87disp.obj
 0001:0003eaab       __rtonepop                 1003faab     LIBCMT:87disp.obj
 0001:0003eaad       __rtonenpop                1003faad     LIBCMT:87disp.obj
 0001:0003eab2       __tosnan1                  1003fab2     LIBCMT:87disp.obj
 0001:0003eadd       __nosnan2                  1003fadd     LIBCMT:87disp.obj
 0001:0003eadf       __tosnan2                  1003fadf     LIBCMT:87disp.obj
 0001:0003eb07       __nan2                     1003fb07     LIBCMT:87disp.obj
 0001:0003eb46       __rtindfpop                1003fb46     LIBCMT:87disp.obj
 0001:0003eb48       __rtindfnpop               1003fb48     LIBCMT:87disp.obj
 0001:0003eb59       __rttosnpopde              1003fb59     LIBCMT:87disp.obj
 0001:0003eb63       __rtchsifneg               1003fb63     LIBCMT:87disp.obj
 0001:0003eb70       __startTwoArgErrorHandling 1003fb70 f   LIBCMT:genexcep.obj
 0001:0003eb87       __startOneArgErrorHandling 1003fb87 f   LIBCMT:genexcep.obj
 0001:0003ebd0       __twoToTOS                 1003fbd0 f   LIBCMT:common.obj
 0001:0003ebe5       __load_CW                  1003fbe5 f   LIBCMT:common.obj
 0001:0003ebfc       __convertTOStoQNaN         1003fbfc f   LIBCMT:common.obj
 0001:0003ec15       __fload_withFB             1003fc15 f   LIBCMT:common.obj
 0001:0003ec58       __checkTOS_withFB          1003fc58 f   LIBCMT:common.obj
 0001:0003ec6e       __fast_exit                1003fc6e f   LIBCMT:common.obj
 0001:0003ec7b       __math_exit                1003fc7b f   LIBCMT:common.obj
 0001:0003eca5       __check_overflow_exit      1003fca5 f   LIBCMT:common.obj
 0001:0003ecb9       __check_range_exit         1003fcb9 f   LIBCMT:common.obj
 0001:0003ed60       __CIasin_pentium4          1003fd60 f   LIBCMT:asin_pentium4.obj
 0001:0003ed78       __asin_pentium4            1003fd78     LIBCMT:asin_pentium4.obj
 0001:0003f2e0       __CIatan_pentium4          100402e0 f   LIBCMT:atan_pentium4.obj
 0001:0003f2f8       __atan_pentium4            100402f8     LIBCMT:atan_pentium4.obj
 0001:0003f5ec       __fFATN2                   100405ec     LIBCMT:87triga.obj
 0001:0003f63c       __rtpiby2                  1004063c     LIBCMT:87triga.obj
 0001:0003f680       __cintrindisp2             10040680 f   LIBCMT:87cdisp.obj
 0001:0003f6be       __cintrindisp1             100406be f   LIBCMT:87cdisp.obj
 0001:0003f6fb       __ctrandisp2               100406fb f   LIBCMT:87cdisp.obj
 0001:0003f891       __ctrandisp1               10040891 f   LIBCMT:87cdisp.obj
 0001:0003f8c4       __fload                    100408c4 f   LIBCMT:87cdisp.obj
 0001:0003f900       __CIcos_pentium4           10040900 f   LIBCMT:cos_pentium4.obj
 0001:0003f918       __cos_pentium4             10040918     LIBCMT:cos_pentium4.obj
 0001:0003faac       ___libm_setusermatherr     10040aac f   LIBCMT:libm_error.obj
 0001:0003fad5       ___libm_error_support      10040ad5 f   LIBCMT:libm_error.obj
 0001:0003fd85       __floor_default            10040d85 f   LIBCMT:floor.obj
 0001:0003fe60       __CIsin_pentium4           10040e60 f   LIBCMT:sin_pentium4.obj
 0001:0003fe78       __sin_pentium4             10040e78     LIBCMT:sin_pentium4.obj
 0001:00040030       __CItan_pentium4           10041030 f   LIBCMT:tan_pentium4.obj
 0001:00040048       __tan_pentium4             10041048     LIBCMT:tan_pentium4.obj
 0001:00040290       ___report_gsfailure        10041290 f   LIBCMT:gs_report.obj
 0001:00040394       __vsnprintf_l              10041394 f   LIBCMT:vsnprint.obj
 0001:00040445       _vsnprintf                 10041445 f   LIBCMT:vsnprint.obj
 0001:00040445       __vsnprintf                10041445 f   LIBCMT:vsnprint.obj
 0001:00040460       __flsbuf                   10041460 f   LIBCMT:_flsbuf.obj
 0001:00040661       _get_int_arg               10041661 f i LIBCMT:output.obj
 0001:0004066e       _get_int64_arg             1004166e f i LIBCMT:output.obj
 0001:0004067e       _get_short_arg             1004167e f i LIBCMT:output.obj
 0001:0004068c       __output_l                 1004168c f   LIBCMT:output.obj
 0001:00041024       __vsprintf_l               10042024 f   LIBCMT:vsprintf.obj
 0001:000410a0       _vsprintf                  100420a0 f   LIBCMT:vsprintf.obj
 0001:000410b7       __vscprintf_helper         100420b7 f   LIBCMT:vsprintf.obj
 0001:0004110c       __vscprintf                1004210c f   LIBCMT:vsprintf.obj
 0001:00041124       __vscprintf_l              10042124 f   LIBCMT:vsprintf.obj
 0001:0004113e       __vscprintf_p              1004213e f   LIBCMT:vsprintf.obj
 0001:00041156       __vscprintf_p_l            10042156 f   LIBCMT:vsprintf.obj
 0001:000411f7       __VEC_memcpy               100421f7 f   LIBCMT:p4_memcpy.obj
 0001:000414e8       ___updatetmbcinfo          100424e8 f   LIBCMT:mbctype.obj
 0001:00041606       __setmbcp_nolock           10042606 f   LIBCMT:mbctype.obj
 0001:000417b1       __getmbcp                  100427b1 f   LIBCMT:mbctype.obj
 0001:000417ed       __setmbcp                  100427ed f   LIBCMT:mbctype.obj
 0001:00041987       ___initmbctable            10042987 f   LIBCMT:mbctype.obj
 0001:000419a5       __encode_pointer           100429a5 f   LIBCMT:tidtable.obj
 0001:00041a08       __encoded_null             10042a08 f   LIBCMT:tidtable.obj
 0001:00041a11       __decode_pointer           10042a11 f   LIBCMT:tidtable.obj
 0001:00041a74       ___crtTlsAlloc@4           10042a74 f   LIBCMT:tidtable.obj
 0001:00041a7d       ___fls_getvalue@4          10042a7d f   LIBCMT:tidtable.obj
 0001:00041a92       ___get_flsindex            10042a92 f   LIBCMT:tidtable.obj
 0001:00041a98       ___set_flsgetvalue         10042a98 f   LIBCMT:tidtable.obj
 0001:00041ac2       ___fls_setvalue@8          10042ac2 f   LIBCMT:tidtable.obj
 0001:00041adb       __mtterm                   10042adb f   LIBCMT:tidtable.obj
 0001:00041b18       __initptd                  10042b18 f   LIBCMT:tidtable.obj
 0001:00041bcc       __getptd_noexit            10042bcc f   LIBCMT:tidtable.obj
 0001:00041c4f       __getptd                   10042c4f f   LIBCMT:tidtable.obj
 0001:00041c67       __freefls@4                10042c67 f   LIBCMT:tidtable.obj
 0001:00041d88       __freeptd                  10042d88 f   LIBCMT:tidtable.obj
 0001:00041df1       ___threadid                10042df1 f   LIBCMT:tidtable.obj
 0001:00041df7       ___threadhandle            10042df7 f   LIBCMT:tidtable.obj
 0001:00041dfd       __mtinit                   10042dfd f   LIBCMT:tidtable.obj
 0001:00041f81       __fltin2                   10042f81 f   LIBCMT:cfin.obj
 0001:00042026       __isctype_l                10043026 f   LIBCMT:isctype.obj
 0001:000420dc       __isctype                  100430dc f   LIBCMT:isctype.obj
 0001:0004210b       ___addl                    1004310b f i LIBCMT:strgtold.obj
 0001:0004212c       ___shl_12                  1004312c f i LIBCMT:strgtold.obj
 0001:0004215a       ___shr_12                  1004315a f i LIBCMT:strgtold.obj
 0001:00042187       ___ld12mul                 10043187 f i LIBCMT:strgtold.obj
 0001:000423fb       ___multtenpow12            100433fb f i LIBCMT:strgtold.obj
 0001:00042705       ___strgtold12_l            10043705 f   LIBCMT:strgtold.obj
 0001:00042dc9       ___STRINGTOLD_L            10043dc9 f   LIBCMT:strgtold.obj
 0001:00042e22       __crt_debugger_hook        10043e22 f   LIBCMT:dbghook.obj
 0001:00042ecb       __output_s_l               10043ecb f   LIBCMT:outputs.obj
 0001:0004387b       __validate_param_reuseA    1004487b f   LIBCMT:outputp.obj
 0001:00043a45       _get_crtdouble_arg         10044a45 f i LIBCMT:outputp.obj
 0001:00043a55       __output_p_l               10044a55 f   LIBCMT:outputp.obj
 0001:000449e1       __initp_heap_handler       100459e1 f   LIBCMT:handler.obj
 0001:000449eb       ?_set_new_handler@@YAP6AHI@ZP6AHI@Z@Z 100459eb f   LIBCMT:handler.obj
 0001:00044a1c       ?_set_new_handler@@YAP6AHI@ZH@Z 10045a1c f   LIBCMT:handler.obj
 0001:00044a25       ?_query_new_handler@@YAP6AHI@ZXZ 10045a25 f   LIBCMT:handler.obj
 0001:00044a32       __callnewh                 10045a32 f   LIBCMT:handler.obj
 0001:00044a54       ?__CxxUnhandledExceptionFilter@@YGJPAU_EXCEPTION_POINTERS@@@Z 10045a54 f   LIBCMT:unhandld.obj
 0001:00044ac0       ?__CxxSetUnhandledExceptionFilter@@YAHXZ 10045ac0 f   LIBCMT:unhandld.obj
 0001:00044ae1       ?__CxxRestoreUnhandledExceptionFilter@@YAXXZ 10045ae1 f   LIBCMT:unhandld.obj
 0001:00044b05       ?terminate@@YAXXZ          10045b05 f   LIBCMT:hooks.obj
 0001:00044b3e       ?unexpected@@YAXXZ         10045b3e f   LIBCMT:hooks.obj
 0001:00044b51       ?_inconsistency@@YAXXZ     10045b51 f   LIBCMT:hooks.obj
 0001:00044b88       __initp_eh_hooks           10045b88 f   LIBCMT:hooks.obj
 0001:00044ba0       __CallSettingFrame@12      10045ba0 f   LIBCMT:lowhelpr.obj
 0001:00044bc7       __NLG_Return               10045bc7     LIBCMT:lowhelpr.obj
 0001:00044bec       ___iob_func                10045bec f   LIBCMT:_file.obj
 0001:00044bf2       ___initstdio               10045bf2 f   LIBCMT:_file.obj
 0001:00044ca3       ___endstdio                10045ca3 f   LIBCMT:_file.obj
 0001:00044cc3       __lock_file                10045cc3 f   LIBCMT:_file.obj
 0001:00044cf2       __lock_file2               10045cf2 f   LIBCMT:_file.obj
 0001:00044d15       __unlock_file              10045d15 f   LIBCMT:_file.obj
 0001:00044d44       __unlock_file2             10045d44 f   LIBCMT:_file.obj
 0001:00044d67       __filbuf                   10045d67 f   LIBCMT:_filbuf.obj
 0001:00044e87       __ioinit                   10045e87 f   LIBCMT:ioinit.obj
 0001:000450c7       __ioterm                   100460c7 f   LIBCMT:ioinit.obj
 0001:00045113       __fileno                   10046113 f   LIBCMT:fileno.obj
 0001:00045140       __getbuf                   10046140 f   LIBCMT:_getbuf.obj
 0001:00045184       __write_nolock             10046184 f   LIBCMT:write.obj
 0001:0004574a       __write                    1004674a f   LIBCMT:write.obj
 0001:00045826       __commit                   10046826 f   LIBCMT:commit.obj
 0001:00045907       __freebuf                  10046907 f   LIBCMT:_freebuf.obj
 0001:00045933       __ftelli64_nolock          10046933 f   LIBCMT:ftelli64.obj
 0001:00045ae7       __ftelli64                 10046ae7 f   LIBCMT:ftelli64.obj
 0001:00045b31       __lseek_nolock             10046b31 f   LIBCMT:lseek.obj
 0001:00045ba3       __lseek                    10046ba3 f   LIBCMT:lseek.obj
 0001:00045c7f       __ftell_nolock             10046c7f f   LIBCMT:ftell.obj
 0001:00045e17       _ftell                     10046e17 f   LIBCMT:ftell.obj
 0001:00045e85       __fseeki64_nolock          10046e85 f   LIBCMT:fseeki64.obj
 0001:00045f1e       __fseeki64                 10046f1e f   LIBCMT:fseeki64.obj
 0001:00045f6d       __close_nolock             10046f6d f   LIBCMT:close.obj
 0001:00046001       __close                    10047001 f   LIBCMT:close.obj
 0001:000460e0       _strchr                    100470e0 f   LIBCMT:strchr.obj
 0001:000460e6       ___from_strstr_to_strchr   100470e6     LIBCMT:strchr.obj
 0001:0004619e       __msize                    1004719e f   LIBCMT:msize.obj
 0001:00046241       __setenvp                  10047241 f   LIBCMT:stdenvp.obj
 0001:0004631c       __set_pgmptr               1004731c f i LIBCMT:stdargv.obj
 0001:000464be       __setargv                  100474be f   LIBCMT:stdargv.obj
 0001:00046577       ___crtGetEnvironmentStringsA 10047577 f   LIBCMT:a_env.obj
 0001:000466ac       __RTC_Initialize           100476ac f   LIBCMT:initsect.obj
 0001:000466d0       __RTC_Terminate            100476d0 f   LIBCMT:initsect.obj
 0001:000466f4       __initp_misc_winxfltr      100476f4 f   LIBCMT:winxfltr.obj
 0001:00046727       __XcptFilter               10047727 f   LIBCMT:winxfltr.obj
 0001:00046896       ___CppXcptFilter           10047896 f   LIBCMT:winxfltr.obj
 0001:000468b1       ___security_init_cookie    100478b1 f   LIBCMT:gs_support.obj
 0001:00046945       ___ansicp                  10047945 f   LIBCMT:convrtcp.obj
 0001:0004698c       ___convertcp               1004798c f   LIBCMT:convrtcp.obj
 0001:00046b40       __alloca_probe_16          10047b40 f   LIBCMT:alloca16.obj
 0001:00046b56       __alloca_probe_8           10047b56     LIBCMT:alloca16.obj
 0001:00046d24       ___crtGetStringTypeA       10047d24 f   LIBCMT:a_str.obj
 0001:00046d64       ___getlocaleinfo           10047d64 f   LIBCMT:inithelp.obj
 0001:00046ebe       __initp_misc_purevirt      10047ebe f   LIBCMT:inithelp.obj
 0001:00046ec8       __calloc_impl              10047ec8 f   LIBCMT:calloc.obj
 0001:00046fe6       _calloc                    10047fe6 f   LIBCMT:calloc.obj
 0001:00047025       _realloc                   10048025 f   LIBCMT:realloc.obj
 0001:00047240       __recalloc                 10048240 f   LIBCMT:realloc.obj
 0001:000476a0       ___free_lc_time            100486a0 f   LIBCMT:inittime.obj
 0001:00047830       ___init_time               10048830 f   LIBCMT:inittime.obj
 0001:000478d6       ___free_lconv_num          100488d6 f   LIBCMT:initnum.obj
 0001:00047916       ___init_numeric            10048916 f   LIBCMT:initnum.obj
 0001:00047b11       ___free_lconv_mon          10048b11 f   LIBCMT:initmon.obj
 0001:00047b9a       ___init_monetary           10048b9a f   LIBCMT:initmon.obj
 0001:00047e5e       ___init_collate            10048e5e f   LIBCMT:initcoll.obj
 0001:00047e61       __Getdays_l                10048e61 f   LIBCMT:strftime.obj
 0001:00047f5f       __Getdays                  10048f5f f   LIBCMT:strftime.obj
 0001:00047f68       __Getmonths_l              10048f68 f   LIBCMT:strftime.obj
 0001:00048066       __Getmonths                10049066 f   LIBCMT:strftime.obj
 0001:0004806f       __Gettnames_l              1004906f f   LIBCMT:strftime.obj
 0001:000483c4       __Gettnames                100493c4 f   LIBCMT:strftime.obj
 0001:00048d94       __Strftime_l               10049d94 f   LIBCMT:strftime.obj
 0001:00048f43       __strftime_l               10049f43 f   LIBCMT:strftime.obj
 0001:00048f61       _strftime                  10049f61 f   LIBCMT:strftime.obj
 0001:00048f7e       __Strftime                 10049f7e f   LIBCMT:strftime.obj
 0001:00048f9c       _strcat_s                  10049f9c f   LIBCMT:strcat_s.obj
 0001:0004900d       _strncpy_s                 1004a00d f   LIBCMT:strncpy_s.obj
 0001:0004967a       ___get_qualified_locale    1004a67a f   LIBCMT:getqloc.obj
 0001:00049860       _strpbrk                   1004a860 f   LIBCMT:strpbrk.obj
 0001:000498a0       __openfile                 1004a8a0 f   LIBCMT:_open.obj
 0001:00049b42       __getstream                1004ab42 f   LIBCMT:stream.obj
 0001:00049c68       __local_unwind4            1004ac68 f   LIBCMT:exsup4.obj
 0001:00049d3e       __seh_longjmp_unwind4@4    1004ad3e f   LIBCMT:exsup4.obj
 0001:00049d5a       @_EH4_CallFilterFunc@8     1004ad5a f   LIBCMT:exsup4.obj
 0001:00049d71       @_EH4_TransferToHandler@8  1004ad71 f   LIBCMT:exsup4.obj
 0001:00049d8a       @_EH4_GlobalUnwind@4       1004ad8a f   LIBCMT:exsup4.obj
 0001:00049da4       @_EH4_LocalUnwind@16       1004ada4 f   LIBCMT:exsup4.obj
 0001:00049dbb       _wcslen                    1004adbb f   LIBCMT:wcslen.obj
 0001:00049dd1       __wopenfile                1004add1 f   LIBCMT:_wopen.obj
 0001:0004a05d       __NMSG_WRITE               1004b05d f   LIBCMT:crt0msg.obj
 0001:0004a1fd       __GET_RTERRMSG             1004b1fd f   LIBCMT:crt0msg.obj
 0001:0004a21d       __FF_MSGBANNER             1004b21d f   LIBCMT:crt0msg.obj
 0001:0004a260       __ValidateImageBase        1004b260 f   LIBCMT:pesect.obj
 0001:0004a290       __FindPESection            1004b290 f   LIBCMT:pesect.obj
 0001:0004a2d2       __IsNonwritableInCurrentImage 1004b2d2 f   LIBCMT:pesect.obj
 0001:0004a33e       __initp_misc_winsig        1004b33e f   LIBCMT:winsig.obj
 0001:0004a426       ___get_sigabrt             1004b426 f   LIBCMT:winsig.obj
 0001:0004a433       ___fpecode                 1004b433 f   LIBCMT:winsig.obj
 0001:0004a43c       ___pxcptinfoptrs           1004b43c f   LIBCMT:winsig.obj
 0001:0004a445       _signal                    1004b445 f   LIBCMT:winsig.obj
 0001:0004a682       _raise                     1004b682 f   LIBCMT:winsig.obj
 0001:0004a832       __initp_misc_rand_s        1004b832 f   LIBCMT:rand_s.obj
 0001:0004a83c       _rand_s                    1004b83c f   LIBCMT:rand_s.obj
 0001:0004a940       __initp_misc_initcrit      1004b940 f   LIBCMT:initcrit.obj
 0001:0004a95a       ___crtInitCritSecAndSpinCount 1004b95a f   LIBCMT:initcrit.obj
 0001:0004aa1f       __isleadbyte_l             1004ba1f f i LIBCMT:_wctype.obj
 0001:0004aa55       _isleadbyte                1004ba55 f i LIBCMT:_wctype.obj
 0001:0004aa63       __iswalpha_l               1004ba63 f i LIBCMT:_wctype.obj
 0001:0004aa79       _iswalpha                  1004ba79 f i LIBCMT:_wctype.obj
 0001:0004aa8a       __iswupper_l               1004ba8a f i LIBCMT:_wctype.obj
 0001:0004aa9d       _iswupper                  1004ba9d f i LIBCMT:_wctype.obj
 0001:0004aaab       __iswlower_l               1004baab f i LIBCMT:_wctype.obj
 0001:0004aabe       _iswlower                  1004babe f i LIBCMT:_wctype.obj
 0001:0004aacc       __iswdigit_l               1004bacc f i LIBCMT:_wctype.obj
 0001:0004aadf       _iswdigit                  1004badf f i LIBCMT:_wctype.obj
 0001:0004aaed       __iswxdigit_l              1004baed f i LIBCMT:_wctype.obj
 0001:0004ab03       _iswxdigit                 1004bb03 f i LIBCMT:_wctype.obj
 0001:0004ab14       __iswspace_l               1004bb14 f i LIBCMT:_wctype.obj
 0001:0004ab27       _iswspace                  1004bb27 f i LIBCMT:_wctype.obj
 0001:0004ab35       __iswpunct_l               1004bb35 f i LIBCMT:_wctype.obj
 0001:0004ab48       _iswpunct                  1004bb48 f i LIBCMT:_wctype.obj
 0001:0004ab56       __iswalnum_l               1004bb56 f i LIBCMT:_wctype.obj
 0001:0004ab6c       _iswalnum                  1004bb6c f i LIBCMT:_wctype.obj
 0001:0004ab7d       __iswprint_l               1004bb7d f i LIBCMT:_wctype.obj
 0001:0004ab93       _iswprint                  1004bb93 f i LIBCMT:_wctype.obj
 0001:0004aba4       __iswgraph_l               1004bba4 f i LIBCMT:_wctype.obj
 0001:0004abba       _iswgraph                  1004bbba f i LIBCMT:_wctype.obj
 0001:0004abcb       __iswcntrl_l               1004bbcb f i LIBCMT:_wctype.obj
 0001:0004abde       _iswcntrl                  1004bbde f i LIBCMT:_wctype.obj
 0001:0004abec       _iswascii                  1004bbec f i LIBCMT:_wctype.obj
 0001:0004abf8       __iswcsym_l                1004bbf8 f i LIBCMT:_wctype.obj
 0001:0004ac1e       ___iswcsym                 1004bc1e f i LIBCMT:_wctype.obj
 0001:0004ac3f       __iswcsymf_l               1004bc3f f i LIBCMT:_wctype.obj
 0001:0004ac65       ___iswcsymf                1004bc65 f i LIBCMT:_wctype.obj
 0001:0004ac86       ?_ValidateRead@@YAHPBXI@Z  1004bc86 f   LIBCMT:validate.obj
 0001:0004ac93       ?_ValidateWrite@@YAHPAXI@Z 1004bc93 f   LIBCMT:validate.obj
 0001:0004aca0       ?_ValidateExecute@@YAHP6GHXZ@Z 1004bca0 f   LIBCMT:validate.obj
 0001:0004acb0       __aulldvrm                 1004bcb0 f   LIBCMT:ulldvrm.obj
 0001:0004ad45       _CallDestructExceptionObject 1004bd45 f   LIBCMT:calldtor.obj
 0001:0004ae40       __ValidateEH3RN            1004be40 f   LIBCMT:eh3valid.obj
 0001:0004b1e2       ??0Block@HeapManager@@QAE@XZ 1004c1e2 f i LIBCMT:undname.obj
 0001:0004b1e8       ?Constructor@HeapManager@@QAEXP6APAXI@ZP6AXPAX@Z@Z 1004c1e8 f i LIBCMT:undname.obj
 0001:0004b203       ?Destructor@HeapManager@@QAEXXZ 1004c203 f i LIBCMT:undname.obj
 0001:0004b229       ?getNumberOfDimensions@UnDecorator@@CAHXZ 1004c229 f   LIBCMT:undname.obj
 0001:0004b28c       ?getTypeEncoding@UnDecorator@@CAHXZ 1004c28c f i LIBCMT:undname.obj
 0001:0004b700       ?doUnderScore@UnDecorator@@SAHXZ 1004c700 f i LIBCMT:undname.obj
 0001:0004b70b       ?doMSKeywords@UnDecorator@@SAHXZ 1004c70b f i LIBCMT:undname.obj
 0001:0004b718       ?doPtr64@UnDecorator@@SAHXZ 1004c718 f i LIBCMT:undname.obj
 0001:0004b726       ?doFunctionReturns@UnDecorator@@SAHXZ 1004c726 f i LIBCMT:undname.obj
 0001:0004b734       ?doAllocationModel@UnDecorator@@SAHXZ 1004c734 f i LIBCMT:undname.obj
 0001:0004b742       ?doAllocationLanguage@UnDecorator@@SAHXZ 1004c742 f i LIBCMT:undname.obj
 0001:0004b750       ?doThisTypes@UnDecorator@@SAHXZ 1004c750 f i LIBCMT:undname.obj
 0001:0004b762       ?doAccessSpecifiers@UnDecorator@@SAHXZ 1004c762 f i LIBCMT:undname.obj
 0001:0004b770       ?doThrowTypes@UnDecorator@@SAHXZ 1004c770 f i LIBCMT:undname.obj
 0001:0004b77e       ?doMemberTypes@UnDecorator@@SAHXZ 1004c77e f i LIBCMT:undname.obj
 0001:0004b78c       ?doNameOnly@UnDecorator@@SAHXZ 1004c78c f i LIBCMT:undname.obj
 0001:0004b797       ?doTypeOnly@UnDecorator@@SAHXZ 1004c797 f i LIBCMT:undname.obj
 0001:0004b7a2       ?haveTemplateParameters@UnDecorator@@SAHXZ 1004c7a2 f i LIBCMT:undname.obj
 0001:0004b7ad       ?doEcsu@UnDecorator@@SAHXZ 1004c7ad f i LIBCMT:undname.obj
 0001:0004b7bb       ?doNoIdentCharCheck@UnDecorator@@SAHXZ 1004c7bb f i LIBCMT:undname.obj
 0001:0004b7c6       ?doEllipsis@UnDecorator@@SAHXZ 1004c7c6 f i LIBCMT:undname.obj
 0001:0004b7d4       ?UScore@UnDecorator@@SAPBDW4Tokens@@@Z 1004c7d4 f   LIBCMT:undname.obj
 0001:0004b7ed       ?getMemory@HeapManager@@QAEPAXIH@Z 1004c7ed f   LIBCMT:undname.obj
 0001:0004b871       ??0DName@@QAE@XZ           1004c871 f i LIBCMT:undname.obj
 0001:0004b87e       ??0DName@@QAE@PAVDNameNode@@@Z 1004c87e f i LIBCMT:undname.obj
 0001:0004b890       ??0DName@@QAE@ABV0@@Z      1004c890 f i LIBCMT:undname.obj
 0001:0004b92c       ?status@DName@@QBE?AW4DNameStatus@@XZ 1004c92c f i LIBCMT:undname.obj
 0001:0004b936       ?clearStatus@DName@@QAEXXZ 1004c936 f i LIBCMT:undname.obj
 0001:0004b93b       ?setPtrRef@DName@@QAEAAV1@XZ 1004c93b f i LIBCMT:undname.obj
 0001:0004b942       ?isPtrRef@DName@@QBEHXZ    1004c942 f i LIBCMT:undname.obj
 0001:0004b94c       ?setIsArray@DName@@QAEXXZ  1004c94c f i LIBCMT:undname.obj
 0001:0004b954       ?isArray@DName@@QBEHXZ     1004c954 f i LIBCMT:undname.obj
 0001:0004b95e       ?isNoTE@DName@@QBEHXZ      1004c95e f i LIBCMT:undname.obj
 0001:0004b968       ?setIsNoTE@DName@@QAEXXZ   1004c968 f i LIBCMT:undname.obj
 0001:0004b970       ?isPinPtr@DName@@QBEHXZ    1004c970 f i LIBCMT:undname.obj
 0001:0004b97a       ?setIsPinPtr@DName@@QAEXXZ 1004c97a f i LIBCMT:undname.obj
 0001:0004b982       ?isComArray@DName@@QBEHXZ  1004c982 f i LIBCMT:undname.obj
 0001:0004b98c       ?setIsComArray@DName@@QAEXXZ 1004c98c f i LIBCMT:undname.obj
 0001:0004b994       ?isVCallThunk@DName@@QBEHXZ 1004c994 f i LIBCMT:undname.obj
 0001:0004b99e       ?setIsVCallThunk@DName@@QAEXXZ 1004c99e f i LIBCMT:undname.obj
 0001:0004b9a6       ??4DName@@QAEAAV0@ABV0@@Z  1004c9a6 f   LIBCMT:undname.obj
 0001:0004ba21       ?isFull@Replicator@@QBEHXZ 1004ca21 f i LIBCMT:undname.obj
 0001:0004ba2a       ??AReplicator@@QBEABVDName@@H@Z 1004ca2a f   LIBCMT:undname.obj
 0001:0004ba4f       ??0DNameNode@@IAE@XZ       1004ca4f f   LIBCMT:undname.obj
 0001:0004ba5c       ?nextNode@DNameNode@@QBEPAV1@XZ 1004ca5c f i LIBCMT:undname.obj
 0001:0004ba60       ??YDNameNode@@QAEAAV0@PAV0@@Z 1004ca60 f   LIBCMT:undname.obj
 0001:0004ba89       ??0charNode@@QAE@D@Z       1004ca89 f   LIBCMT:undname.obj
 0001:0004ba9f       ?length@charNode@@UBEHXZ   1004ca9f f i LIBCMT:undname.obj
 0001:0004baa3       ?getLastChar@charNode@@UBEDXZ 1004caa3 f i LIBCMT:undname.obj
 0001:0004baa7       ?getString@charNode@@UBEPADPADH@Z 1004caa7 f   LIBCMT:undname.obj
 0001:0004bac2       ?length@pcharNode@@UBEHXZ  1004cac2 f i LIBCMT:undname.obj
 0001:0004bac6       ??0pDNameNode@@QAE@PAVDName@@@Z 1004cac6 f   LIBCMT:undname.obj
 0001:0004baf5       ??0DNameStatusNode@@QAE@W4DNameStatus@@@Z 1004caf5 f   LIBCMT:undname.obj
 0001:0004bb1a       ?length@DNameStatusNode@@UBEHXZ 1004cb1a f i LIBCMT:undname.obj
 0001:0004bb1e       ?getLastChar@DNameStatusNode@@UBEDXZ 1004cb1e f i LIBCMT:undname.obj
 0001:0004bb7e       ?getDataIndirectType@UnDecorator@@CA?AVDName@@XZ 1004cb7e f i LIBCMT:undname.obj
 0001:0004bbb1       ?getThisType@UnDecorator@@CA?AVDName@@XZ 1004cbb1 f i LIBCMT:undname.obj
 0001:0004bbe5       ??2@YAPAXIAAVHeapManager@@H@Z 1004cbe5 f i LIBCMT:undname.obj
 0001:0004bbf8       ??0DName@@QAE@PAV0@@Z      1004cbf8 f   LIBCMT:undname.obj
 0001:0004bc4e       ??0DName@@QAE@W4DNameStatus@@@Z 1004cc4e f   LIBCMT:undname.obj
 0001:0004bcaf       ?isValid@DName@@QBEHXZ     1004ccaf f   LIBCMT:undname.obj
 0001:0004bcc6       ?isEmpty@DName@@QBEHXZ     1004ccc6 f   LIBCMT:undname.obj
 0001:0004bcdb       ?isUDC@DName@@QBEHXZ       1004ccdb f i LIBCMT:undname.obj
 0001:0004bcef       ?setIsUDC@DName@@QAEXXZ    1004ccef f i LIBCMT:undname.obj
 0001:0004bcfd       ?isUDTThunk@DName@@QBEHXZ  1004ccfd f i LIBCMT:undname.obj
 0001:0004bd11       ?length@DName@@QBEHXZ      1004cd11 f   LIBCMT:undname.obj
 0001:0004bd36       ?getLastChar@DName@@QBEDXZ 1004cd36 f   LIBCMT:undname.obj
 0001:0004bd6e       ?getString@DName@@QBEPADPADH@Z 1004cd6e f   LIBCMT:undname.obj
 0001:0004bdff       ??_5DName@@QAEAAV0@ABV0@@Z 1004cdff f   LIBCMT:undname.obj
 0001:0004be34       ??4DName@@QAEAAV0@W4DNameStatus@@@Z 1004ce34 f   LIBCMT:undname.obj
 0001:0004beb5       ??0Replicator@@QAE@XZ      1004ceb5 f i LIBCMT:undname.obj
 0001:0004bed3       ??YReplicator@@QAEAAV0@ABVDName@@@Z 1004ced3 f   LIBCMT:undname.obj
 0001:0004bf1a       ?clone@DNameNode@@QAEPAV1@XZ 1004cf1a f   LIBCMT:undname.obj
 0001:0004bf61       ??0pcharNode@@QAE@PBDH@Z   1004cf61 f   LIBCMT:undname.obj
 0001:0004bfc6       ?getLastChar@pcharNode@@UBEDXZ 1004cfc6 f i LIBCMT:undname.obj
 0001:0004bfd8       ?getString@pcharNode@@UBEPADPADH@Z 1004cfd8 f   LIBCMT:undname.obj
 0001:0004c009       ?length@pDNameNode@@UBEHXZ 1004d009 f i LIBCMT:undname.obj
 0001:0004c018       ?getLastChar@pDNameNode@@UBEDXZ 1004d018 f i LIBCMT:undname.obj
 0001:0004c027       ?getString@pDNameNode@@UBEPADPADH@Z 1004d027 f   LIBCMT:undname.obj
 0001:0004c044       ?getString@DNameStatusNode@@UBEPADPADH@Z 1004d044 f   LIBCMT:undname.obj
 0001:0004c077       ??0UnDecorator@@QAE@PADPBDHP6APADJ@ZK@Z 1004d077 f i LIBCMT:undname.obj
 0001:0004c0ea       ?getReturnType@UnDecorator@@CA?AVDName@@PAV2@@Z 1004d0ea f   LIBCMT:undname.obj
 0001:0004c119       ?getStorageConvention@UnDecorator@@CA?AVDName@@XZ 1004d119 f i LIBCMT:undname.obj
 0001:0004c128       ??YDName@@QAEAAV0@W4DNameStatus@@@Z 1004d128 f   LIBCMT:undname.obj
 0001:0004c1a1       ??4DName@@QAEAAV0@PAV0@@Z  1004d1a1 f   LIBCMT:undname.obj
 0001:0004c209       ?doPchar@DName@@AAEXPBDH@Z 1004d209 f   LIBCMT:undname.obj
 0001:0004c2af       ??0DName@@QAE@D@Z          1004d2af f   LIBCMT:undname.obj
 0001:0004c2d5       ??0DName@@QAE@PBD@Z        1004d2d5 f   LIBCMT:undname.obj
 0001:0004c306       ??0DName@@QAE@AAPBDD@Z     1004d306 f   LIBCMT:undname.obj
 0001:0004c3d6       ??0DName@@QAE@_K@Z         1004d3d6 f   LIBCMT:undname.obj
 0001:0004c43f       ??0DName@@QAE@_J@Z         1004d43f f   LIBCMT:undname.obj
 0001:0004c4d6       ??HDName@@QBE?AV0@W4DNameStatus@@@Z 1004d4d6 f   LIBCMT:undname.obj
 0001:0004c504       ??YDName@@QAEAAV0@ABV0@@Z  1004d504 f   LIBCMT:undname.obj
 0001:0004c566       ??YDName@@QAEAAV0@PAV0@@Z  1004d566 f   LIBCMT:undname.obj
 0001:0004c5f1       ??4DName@@QAEAAV0@D@Z      1004d5f1 f   LIBCMT:undname.obj
 0001:0004c60d       ??4DName@@QAEAAV0@PBD@Z    1004d60d f   LIBCMT:undname.obj
 0001:0004c637       ?getCallingConvention@UnDecorator@@CA?AVDName@@XZ 1004d637 f   LIBCMT:undname.obj
 0001:0004c6dd       ?getVCallThunkType@UnDecorator@@CA?AVDName@@XZ 1004d6dd f i LIBCMT:undname.obj
 0001:0004c714       ??HDName@@QBE?AV0@ABV0@@Z  1004d714 f   LIBCMT:undname.obj
 0001:0004c765       ??HDName@@QBE?AV0@PAV0@@Z  1004d765 f   LIBCMT:undname.obj
 0001:0004c793       ??YDName@@QAEAAV0@D@Z      1004d793 f   LIBCMT:undname.obj
 0001:0004c7fd       ??YDName@@QAEAAV0@PBD@Z    1004d7fd f   LIBCMT:undname.obj
 0001:0004c869       ?getArgumentList@UnDecorator@@CA?AVDName@@XZ 1004d869 f   LIBCMT:undname.obj
 0001:0004c949       ?getVdispMapType@UnDecorator@@CA?AVDName@@ABV2@@Z 1004d949 f i LIBCMT:undname.obj
 0001:0004c998       ??H@YA?AVDName@@DABV0@@Z   1004d998 f i LIBCMT:undname.obj
 0001:0004c9ba       ??H@YA?AVDName@@W4DNameStatus@@ABV0@@Z 1004d9ba f i LIBCMT:undname.obj
 0001:0004c9dc       ??H@YA?AVDName@@PBDABV0@@Z 1004d9dc f i LIBCMT:undname.obj
 0001:0004c9fe       ??HDName@@QBE?AV0@D@Z      1004d9fe f   LIBCMT:undname.obj
 0001:0004ca2c       ??HDName@@QBE?AV0@PBD@Z    1004da2c f   LIBCMT:undname.obj
 0001:0004ca5a       ?getDimension@UnDecorator@@CA?AVDName@@_N@Z 1004da5a f   LIBCMT:undname.obj
 0001:0004cb9b       ?getEnumType@UnDecorator@@CA?AVDName@@XZ 1004db9b f i LIBCMT:undname.obj
 0001:0004cc6f       ?getArgumentTypes@UnDecorator@@CA?AVDName@@XZ 1004dc6f f   LIBCMT:undname.obj
 0001:0004cd33       ?getThrowTypes@UnDecorator@@CA?AVDName@@XZ 1004dd33 f   LIBCMT:undname.obj
 0001:0004cdb1       ?getExtendedDataIndirectType@UnDecorator@@CA?AVDName@@AADAA_NH@Z 1004ddb1 f   LIBCMT:undname.obj
 0001:0004ced6       ?getArrayType@UnDecorator@@CA?AVDName@@ABV2@@Z 1004ded6 f i LIBCMT:undname.obj
 0001:0004d035       ?getLexicalFrame@UnDecorator@@CA?AVDName@@XZ 1004e035 f i LIBCMT:undname.obj
 0001:0004d066       ?getDisplacement@UnDecorator@@CA?AVDName@@XZ 1004e066 f i LIBCMT:undname.obj
 0001:0004d078       ?getCallIndex@UnDecorator@@CA?AVDName@@XZ 1004e078 f i LIBCMT:undname.obj
 0001:0004d08a       ?getGuardNumber@UnDecorator@@CA?AVDName@@XZ 1004e08a f i LIBCMT:undname.obj
 0001:0004d09c       ?getVfTableType@UnDecorator@@CA?AVDName@@ABV2@@Z 1004e09c f i LIBCMT:undname.obj
 0001:0004d1ec       ?getStringEncoding@UnDecorator@@CA?AVDName@@PADH@Z 1004e1ec f   LIBCMT:undname.obj
 0001:0004d28c       ?getSignedDimension@UnDecorator@@CA?AVDName@@XZ 1004e28c f   LIBCMT:undname.obj
 0001:0004d2dc       ?getTemplateConstant@UnDecorator@@CA?AVDName@@XZ 1004e2dc f   LIBCMT:undname.obj
 0001:0004d597       ?getPtrRefDataType@UnDecorator@@CA?AVDName@@ABV2@H@Z 1004e597 f i LIBCMT:undname.obj
 0001:0004d670       ?getVbTableType@UnDecorator@@CA?AVDName@@ABV2@@Z 1004e670 f i LIBCMT:undname.obj
 0001:0004d684       ?getTemplateArgumentList@UnDecorator@@CA?AVDName@@XZ 1004e684 f   LIBCMT:undname.obj
 0001:0004d83c       ?getOperatorName@UnDecorator@@CA?AVDName@@_NPA_N@Z 1004e83c f i LIBCMT:undname.obj
 0001:0004ddab       ?getTemplateName@UnDecorator@@CA?AVDName@@_N@Z 1004edab f   LIBCMT:undname.obj
 0001:0004defe       ?getZName@UnDecorator@@CA?AVDName@@_N@Z 1004eefe f   LIBCMT:undname.obj
 0001:0004e0e8       ?getScopedName@UnDecorator@@CA?AVDName@@XZ 1004f0e8 f   LIBCMT:undname.obj
 0001:0004e1cc       ?getECSUName@UnDecorator@@CA?AVDName@@XZ 1004f1cc f i LIBCMT:undname.obj
 0001:0004e1db       ?getECSUDataType@UnDecorator@@CA?AVDName@@XZ 1004f1db f   LIBCMT:undname.obj
 0001:0004e2db       ?getSymbolName@UnDecorator@@CA?AVDName@@XZ 1004f2db f i LIBCMT:undname.obj
 0001:0004e321       ?getBasedType@UnDecorator@@CA?AVDName@@XZ 1004f321 f   LIBCMT:undname.obj
 0001:0004e3b3       ?composeDeclaration@UnDecorator@@CA?AVDName@@ABV2@@Z 1004f3b3 f i LIBCMT:undname.obj
 0001:0004eef5       ?getDecoratedName@UnDecorator@@CA?AVDName@@XZ 1004fef5 f   LIBCMT:undname.obj
 0001:0004f106       ?getScope@UnDecorator@@CA?AVDName@@XZ 10050106 f   LIBCMT:undname.obj
 0001:0004f391       ?getFunctionIndirectType@UnDecorator@@CA?AVDName@@ABV2@@Z 10050391 f   LIBCMT:undname.obj
 0001:0004f6d2       ?getDataIndirectType@UnDecorator@@CA?AVDName@@ABV2@D0H@Z 100506d2 f   LIBCMT:undname.obj
 0001:0004fbb6       ??BUnDecorator@@QAEPADXZ   10050bb6 f i LIBCMT:undname.obj
 0001:0004fd02       ?getPtrRefType@UnDecorator@@CA?AVDName@@ABV2@0D@Z 10050d02 f   LIBCMT:undname.obj
 0001:0004fe18       ?getPointerType@UnDecorator@@CA?AVDName@@ABV2@0@Z 10050e18 f i LIBCMT:undname.obj
 0001:0004fe33       ?getPointerTypeArray@UnDecorator@@CA?AVDName@@ABV2@0@Z 10050e33 f i LIBCMT:undname.obj
 0001:0004fe4e       ?getReferenceType@UnDecorator@@CA?AVDName@@ABV2@0@Z 10050e4e f i LIBCMT:undname.obj
 0001:0004fe69       ___unDName                 10050e69 f   LIBCMT:undname.obj
 0001:0004ff0c       ___unDNameEx               10050f0c f   LIBCMT:undname.obj
 0001:0004ffaf       ?getBasicDataType@UnDecorator@@CA?AVDName@@ABV2@@Z 10050faf f   LIBCMT:undname.obj
 0001:00050323       ?getPrimaryDataType@UnDecorator@@CA?AVDName@@ABV2@@Z 10051323 f   LIBCMT:undname.obj
 0001:00050461       ?getDataType@UnDecorator@@CA?AVDName@@PAV2@@Z 10051461 f   LIBCMT:undname.obj
 0001:00050512       ?getExternalDataType@UnDecorator@@CA?AVDName@@ABV2@@Z 10051512 f i LIBCMT:undname.obj
 0001:000505c6       __get_sse2_info            100515c6 f   LIBCMT:cpu_disp.obj
 0001:00050626       ___sse2_available_init     10051626 f   LIBCMT:cpu_disp.obj
 0001:00050640       _strrchr                   10051640 f   LIBCMT:strrchr.obj
 0001:0005066d       __tolower                  1005166d f   LIBCMT:tolower.obj
 0001:00050675       __tolower_l                10051675 f   LIBCMT:tolower.obj
 0001:0005078c       _tolower                   1005178c f   LIBCMT:tolower.obj
 0001:000507b3       __atodbl_l                 100517b3 f   LIBCMT:atodbl.obj
 0001:00050859       __atodbl                   10051859 f   LIBCMT:atodbl.obj
 0001:0005086c       __atoldbl_l                1005186c f   LIBCMT:atodbl.obj
 0001:00050913       __atoldbl                  10051913 f   LIBCMT:atodbl.obj
 0001:00050926       __atoflt_l                 10051926 f   LIBCMT:atodbl.obj
 0001:000509cc       __atoflt                   100519cc f   LIBCMT:atodbl.obj
 0001:000509df       __set_output_format        100519df f   LIBCMT:outputformat.obj
 0001:00050a16       __get_output_format        10051a16 f   LIBCMT:outputformat.obj
 0001:00050a1c       __fptostr                  10051a1c f   LIBCMT:_fptostr.obj
 0001:00050ad9       ___dtold                   10051ad9 f   LIBCMT:cfout.obj
 0001:00050b94       __fltout2                  10051b94 f   LIBCMT:cfout.obj
 0001:00050c30       __alldvrm                  10051c30 f   LIBCMT:lldvrm.obj
 0001:00050d10       __aullshr                  10051d10 f   LIBCMT:ullshr.obj
 0001:00050d2f       __fptrap                   10051d2f f   LIBCMT:crt0fp.obj
 0001:00050d38       __controlfp_s              10051d38 f   LIBCMT:contrlfp.obj
 0001:00050da2       __87except                 10051da2 f   LIBCMT:87except.obj
 0001:00050e9e       __matherr                  10051e9e f   LIBCMT:matherr.obj
 0001:00050ea1       __raise_exc_ex             10051ea1 f   LIBCMT:fpexcept.obj
 0001:0005117b       __raise_exc                1005217b f   LIBCMT:fpexcept.obj
 0001:0005119c       __raise_excf               1005219c f   LIBCMT:fpexcept.obj
 0001:000511bd       __handle_exc               100521bd f   LIBCMT:fpexcept.obj
 0001:0005139e       __set_errno_from_matherr   1005239e f   LIBCMT:fpexcept.obj
 0001:000513e6       __errcode                  100523e6 f   LIBCMT:fpexcept.obj
 0001:00051413       __umatherr                 10052413 f   LIBCMT:fpexcept.obj
 0001:000514b1       __handle_qnan1             100524b1 f   LIBCMT:fpexcept.obj
 0001:00051504       __handle_qnan2             10052504 f   LIBCMT:fpexcept.obj
 0001:00051563       __except1                  10052563 f   LIBCMT:fpexcept.obj
 0001:0005161d       __except2                  1005261d f   LIBCMT:fpexcept.obj
 0001:000516e9       __frnd                     100526e9 f   LIBCMT:frnd.obj
 0001:000516fa       __set_exp                  100526fa f   LIBCMT:util.obj
 0001:00051724       __get_exp                  10052724 f   LIBCMT:util.obj
 0001:00051739       __add_exp                  10052739 f   LIBCMT:util.obj
 0001:00051763       __set_bexp                 10052763 f   LIBCMT:util.obj
 0001:00051788       __sptype                   10052788 f   LIBCMT:util.obj
 0001:000517e3       __decomp                   100527e3 f   LIBCMT:util.obj
 0001:00051892       __statfp                   10052892 f   LIBCMT:fpctrl.obj
 0001:0005189d       __clrfp                    1005289d f   LIBCMT:fpctrl.obj
 0001:000518a9       __ctrlfp                   100528a9 f   LIBCMT:fpctrl.obj
 0001:000518d0       __set_statfp               100528d0 f   LIBCMT:fpctrl.obj
 0001:00051926       ___get_fpsr_sse2           10052926 f   LIBCMT:fpctrl.obj
 0001:00051942       ___set_fpsr_sse2           10052942 f   LIBCMT:fpctrl.obj
 0001:000519b4       ___fclrf_sse2              100529b4 f   LIBCMT:fpctrl.obj
 0001:000519cc       ___statfp_sse2             100529cc f   LIBCMT:fpctrl.obj
 0001:000519df       ___clrfp_sse2              100529df f   LIBCMT:fpctrl.obj
 0001:000519f7       ___ctrlfp_sse2             100529f7 f   LIBCMT:fpctrl.obj
 0001:00051a2b       ___set_statfp_sse2         10052a2b f   LIBCMT:fpctrl.obj
 0001:00051a41       __lseeki64_nolock          10052a41 f   LIBCMT:lseeki64.obj
 0001:00051ac4       __lseeki64                 10052ac4 f   LIBCMT:lseeki64.obj
 0001:00051bdd       __isatty                   10052bdd f   LIBCMT:isatty.obj
 0001:00051c3b       _printf                    10052c3b f   LIBCMT:printf.obj
 0001:00051cea       __printf_l                 10052cea f   LIBCMT:printf.obj
 0001:00051d00       __printf_s_l               10052d00 f   LIBCMT:printf.obj
 0001:00051d16       _printf_s                  10052d16 f   LIBCMT:printf.obj
 0001:00051d2a       __printf_p_l               10052d2a f   LIBCMT:printf.obj
 0001:00051d40       __printf_p                 10052d40 f   LIBCMT:printf.obj
 0001:00051d54       __set_printf_count_output  10052d54 f   LIBCMT:printf.obj
 0001:00051d79       __get_printf_count_output  10052d79 f   LIBCMT:printf.obj
 0001:00051d8f       __wctomb_s_l               10052d8f f   LIBCMT:wctomb.obj
 0001:00051eee       _wctomb_s                  10052eee f   LIBCMT:wctomb.obj
 0001:00051f09       __wctomb_l                 10052f09 f   LIBCMT:wctomb.obj
 0001:00051f58       _wctomb                    10052f58 f   LIBCMT:wctomb.obj
 0001:00051f88       __ZeroTail                 10052f88 f i LIBCMT:intrncvt.obj
 0001:00051fcd       __IncMan                   10052fcd f i LIBCMT:intrncvt.obj
 0001:00052037       __RoundMan                 10053037 f i LIBCMT:intrncvt.obj
 0001:00052125       __CopyMan                  10053125 f i LIBCMT:intrncvt.obj
 0001:00052140       __FillZeroMan              10053140 f i LIBCMT:intrncvt.obj
 0001:0005214c       __IsZeroMan                1005314c f i LIBCMT:intrncvt.obj
 0001:00052165       __ShrMan                   10053165 f i LIBCMT:intrncvt.obj
 0001:000521fd       __ld12cvt                  100531fd f i LIBCMT:intrncvt.obj
 0001:00052726       __ld12tod                  10053726 f   LIBCMT:intrncvt.obj
 0001:00052c68       __ld12tof                  10053c68 f   LIBCMT:intrncvt.obj
 0001:000531aa       __ld12told                 100541aa f   LIBCMT:intrncvt.obj
 0001:0005326c       ___add_12                  1005426c f i LIBCMT:mantold.obj
 0001:000532d9       ___mtold12                 100542d9 f   LIBCMT:mantold.obj
 0001:000536d0       _strtol                    100546d0 f   LIBCMT:strtol.obj
 0001:000536f9       __strtol_l                 100546f9 f   LIBCMT:strtol.obj
 0001:00053714       _strtoul                   10054714 f   LIBCMT:strtol.obj
 0001:0005373e       __strtoul_l                1005473e f   LIBCMT:strtol.obj
 0001:00053759       __fcloseall                10054759 f   LIBCMT:closeall.obj
 0001:000537f8       __read_nolock              100547f8 f   LIBCMT:read.obj
 0001:00053d9a       __read                     10054d9a f   LIBCMT:read.obj
 0001:00053e76       __putwch_nolock            10054e76 f   LIBCMT:putwch.obj
 0001:00053f38       __cputws                   10054f38 f   LIBCMT:putwch.obj
 0001:00053fd3       __putwch                   10054fd3 f   LIBCMT:putwch.obj
 0001:00054019       __mbtowc_l                 10055019 f   LIBCMT:mbtowc.obj
 0001:0005412c       _mbtowc                    1005512c f   LIBCMT:mbtowc.obj
 0001:00054143       __set_osfhnd               10055143 f   LIBCMT:osfinfo.obj
 0001:000541c0       __free_osfhnd              100551c0 f   LIBCMT:osfinfo.obj
 0001:00054241       __get_osfhandle            10055241 f   LIBCMT:osfinfo.obj
 0001:000542b2       ___lock_fhandle            100552b2 f   LIBCMT:osfinfo.obj
 0001:00054352       __unlock_fhandle           10055352 f   LIBCMT:osfinfo.obj
 0001:00054374       __alloc_osfhnd             10055374 f   LIBCMT:osfinfo.obj
 0001:00054513       __open_osfhandle           10055513 f   LIBCMT:osfinfo.obj
 0001:00054679       __ismbbkalnum_l            10055679 f   LIBCMT:ismbbyte.obj
 0001:0005468e       __ismbbkalnum              1005568e f   LIBCMT:ismbbyte.obj
 0001:000546a1       __ismbbkprint_l            100556a1 f   LIBCMT:ismbbyte.obj
 0001:000546b6       __ismbbkprint              100556b6 f   LIBCMT:ismbbyte.obj
 0001:000546c9       __ismbbkpunct_l            100556c9 f   LIBCMT:ismbbyte.obj
 0001:000546de       __ismbbkpunct              100556de f   LIBCMT:ismbbyte.obj
 0001:000546f1       __ismbbalnum_l             100556f1 f   LIBCMT:ismbbyte.obj
 0001:00054709       __ismbbalnum               10055709 f   LIBCMT:ismbbyte.obj
 0001:0005471f       __ismbbalpha_l             1005571f f   LIBCMT:ismbbyte.obj
 0001:00054737       __ismbbalpha               10055737 f   LIBCMT:ismbbyte.obj
 0001:0005474d       __ismbbgraph_l             1005574d f   LIBCMT:ismbbyte.obj
 0001:00054765       __ismbbgraph               10055765 f   LIBCMT:ismbbyte.obj
 0001:0005477b       __ismbbprint_l             1005577b f   LIBCMT:ismbbyte.obj
 0001:00054793       __ismbbprint               10055793 f   LIBCMT:ismbbyte.obj
 0001:000547a9       __ismbbpunct_l             100557a9 f   LIBCMT:ismbbyte.obj
 0001:000547be       __ismbbpunct               100557be f   LIBCMT:ismbbyte.obj
 0001:000547d1       __ismbblead_l              100557d1 f   LIBCMT:ismbbyte.obj
 0001:000547e6       __ismbblead                100557e6 f   LIBCMT:ismbbyte.obj
 0001:000547f9       __ismbbtrail_l             100557f9 f   LIBCMT:ismbbyte.obj
 0001:0005480e       __ismbbtrail               1005580e f   LIBCMT:ismbbyte.obj
 0001:00054821       __ismbbkana_l              10055821 f   LIBCMT:ismbbyte.obj
 0001:00054874       __ismbbkana                10055874 f   LIBCMT:ismbbyte.obj
 0001:00054882       _atol                      10055882 f   LIBCMT:atox.obj
 0001:00054893       __atol_l                   10055893 f   LIBCMT:atox.obj
 0001:000548a8       _atoi                      100558a8 f   LIBCMT:atox.obj
 0001:000548ad       __atoi_l                   100558ad f   LIBCMT:atox.obj
 0001:000548b2       __atoi64                   100558b2 f   LIBCMT:atox.obj
 0001:000548c3       __atoi64_l                 100558c3 f   LIBCMT:atox.obj
 0001:000548e0       __alloca_probe             100558e0     LIBCMT:chkstk.obj
 0001:000548e0       __chkstk                   100558e0 f   LIBCMT:chkstk.obj
 0001:00054a46       ___crtGetLocaleInfoW       10055a46 f   LIBCMT:w_loc.obj
 0001:00054bbe       ___crtGetLocaleInfoA       10055bbe f   LIBCMT:a_loc.obj
 0001:00054bf9       __get_daylight             10055bf9 f   LIBCMT:timeset.obj
 0001:00054c2d       __get_dstbias              10055c2d f   LIBCMT:timeset.obj
 0001:00054c61       __get_timezone             10055c61 f   LIBCMT:timeset.obj
 0001:00054c95       __get_tzname               10055c95 f   LIBCMT:timeset.obj
 0001:00054d37       ___daylight                10055d37 f   LIBCMT:timeset.obj
 0001:00054d3d       ___dstbias                 10055d3d f   LIBCMT:timeset.obj
 0001:00054d43       ___timezone                10055d43 f   LIBCMT:timeset.obj
 0001:00054d49       ___tzname                  10055d49 f   LIBCMT:timeset.obj
 0001:00054d4f       __set_daylight             10055d4f f i LIBCMT:tzset.obj
 0001:00054d5b       __set_dstbias              10055d5b f i LIBCMT:tzset.obj
 0001:00054d67       __set_timezone             10055d67 f i LIBCMT:tzset.obj
 0001:00055455       ___tzset                   10056455 f   LIBCMT:tzset.obj
 0001:000554a4       __tzset                    100564a4 f   LIBCMT:tzset.obj
 0001:000554dc       __isindst                  100564dc f   LIBCMT:tzset.obj
 0001:0005551d       ___ascii_stricmp           1005651d f   LIBCMT:stricmp.obj
 0001:00055552       __stricmp_l                10056552 f   LIBCMT:stricmp.obj
 0001:00055625       __stricmp                  10056625 f   LIBCMT:stricmp.obj
 0001:00055675       __strnicmp_l               10056675 f   LIBCMT:strnicmp.obj
 0001:00055765       __strnicmp                 10056765 f   LIBCMT:strnicmp.obj
 0001:00055dff       __open                     10056dff f   LIBCMT:open.obj
 0001:00055eb5       __sopen_helper             10056eb5 f   LIBCMT:open.obj
 0001:00055f81       __sopen                    10056f81 f   LIBCMT:open.obj
 0001:00055fb1       __sopen_s                  10056fb1 f   LIBCMT:open.obj
 0001:00055fcf       __mbsicmp_l                10056fcf f   LIBCMT:mbsicmp.obj
 0001:000561e9       __mbsicmp                  100571e9 f   LIBCMT:mbsicmp.obj
 0001:000561fc       __mbsnbcmp_l               100571fc f   LIBCMT:mbsnbcmp.obj
 0001:00056365       __mbsnbcmp                 10057365 f   LIBCMT:mbsnbcmp.obj
 0001:000569bb       __wopen                    100579bb f   LIBCMT:wopen.obj
 0001:00056a71       __wsopen_helper            10057a71 f   LIBCMT:wopen.obj
 0001:00056b3d       __wsopen                   10057b3d f   LIBCMT:wopen.obj
 0001:00056b6d       __wsopen_s                 10057b6d f   LIBCMT:wopen.obj
 0001:00056b8b       __wcsicmp_l                10057b8b f   LIBCMT:wcsicmp.obj
 0001:00056c9a       __wcsicmp                  10057c9a f   LIBCMT:wcsicmp.obj
 0001:00056d2b       _wcsncmp                   10057d2b f   LIBCMT:wcsncmp.obj
 0001:00056d60       ___crtMessageBoxA          10057d60 f   LIBCMT:crtmbox.obj
 0001:00056efe       __set_error_mode           10057efe f   LIBCMT:errmode.obj
 0001:00056f44       ___set_app_type            10057f44 f   LIBCMT:errmode.obj
 0001:00056f4e       ___get_app_type            10057f4e f   LIBCMT:errmode.obj
 0001:00056f54       __iswctype_l               10057f54 f   LIBCMT:iswctype.obj
 0001:00056fd6       _iswctype                  10057fd6 f   LIBCMT:iswctype.obj
 0001:00057044       _is_wctype                 10058044 f   LIBCMT:iswctype.obj
 0001:00057049       __purecall                 10058049 f   LIBCMT:purevirt.obj
 0001:00057073       __set_purecall_handler     10058073 f   LIBCMT:purevirt.obj
 0001:00057095       __get_purecall_handler     10058095 f   LIBCMT:purevirt.obj
 0001:000570b0       __allmul                   100580b0 f   LIBCMT:llmul.obj
 0001:000570e4       _$I10_OUTPUT               100580e4 f   LIBCMT:x10fout.obj
 0001:000579ac       __set_controlfp            100589ac f   LIBCMT:ieee87.obj
 0001:00057d02       __statusfp                 10058d02 f   LIBCMT:ieee87.obj
 0001:00057d92       __fpreset                  10058d92 f   LIBCMT:ieee87.obj
 0001:00057fc2       __statusfp2                10058fc2 f   LIBCMT:ieee87.obj
 0001:0005801a       __clearfp                  1005901a f   LIBCMT:ieee87.obj
 0001:000580f1       ___control87_2             100590f1 f   LIBCMT:ieee87.obj
 0001:000583fb       __control87                100593fb f i LIBCMT:ieee87.obj
 0001:000586fe       __controlfp                100596fe f   LIBCMT:ieee87.obj
 0001:00058a07       __stbuf                    10059a07 f   LIBCMT:_sftbuf.obj
 0001:00058a9d       __ftbuf                    10059a9d f   LIBCMT:_sftbuf.obj
 0001:00058acc       _vprintf_helper            10059acc f   LIBCMT:vprintf.obj
 0001:00058b5c       __vprintf_l                10059b5c f   LIBCMT:vprintf.obj
 0001:00058b76       __vprintf_s_l              10059b76 f   LIBCMT:vprintf.obj
 0001:00058b90       __vprintf_p_l              10059b90 f   LIBCMT:vprintf.obj
 0001:00058baa       _vprintf                   10059baa f   LIBCMT:vprintf.obj
 0001:00058bc2       _vprintf_s                 10059bc2 f   LIBCMT:vprintf.obj
 0001:00058bda       __vprintf_p                10059bda f   LIBCMT:vprintf.obj
 0001:00058bf2       ___initconin               10059bf2 f   LIBCMT:initcon.obj
 0001:00058c11       ___initconout              10059c11 f   LIBCMT:initcon.obj
 0001:00058c30       ___termcon                 10059c30 f   LIBCMT:initcon.obj
 0001:00058ef1       __strtoi64                 10059ef1 f   LIBCMT:strtoq.obj
 0001:00058f1a       __strtoi64_l               10059f1a f   LIBCMT:strtoq.obj
 0001:00058f35       __strtoui64                10059f35 f   LIBCMT:strtoq.obj
 0001:00058f5f       __strtoui64_l              10059f5f f   LIBCMT:strtoq.obj
 0001:00058f7a       __getenv_helper_nolock     10059f7a f   LIBCMT:getenv.obj
 0001:00059130       _getenv                    1005a130 f   LIBCMT:getenv.obj
 0001:000591b3       _getenv_s                  1005a1b3 f   LIBCMT:getenv.obj
 0001:0005928b       __dupenv_s                 1005a28b f   LIBCMT:getenv.obj
 0001:00059380       ___ascii_strnicmp          1005a380 f   LIBCMT:_strnicm.obj
 0001:000593e1       __chsize_nolock            1005a3e1 f   LIBCMT:chsize.obj
 0001:00059595       __chsize_s                 1005a595 f   LIBCMT:chsize.obj
 0001:00059682       __chsize                   1005a682 f   LIBCMT:chsize.obj
 0001:0005969a       __setmode_nolock           1005a69a f   LIBCMT:setmode.obj
 0001:00059756       __set_fmode                1005a756 f   LIBCMT:setmode.obj
 0001:0005979c       __get_fmode                1005a79c f   LIBCMT:setmode.obj
 0001:000597d0       __setmode                  1005a7d0 f   LIBCMT:setmode.obj
 0001:000598c7       __towlower_l               1005a8c7 f   LIBCMT:towlower.obj
 0001:00059974       _towlower                  1005a974 f   LIBCMT:towlower.obj
 0001:00059ba6       ___crtGetStringTypeW       1005aba6 f   LIBCMT:w_str.obj
 0001:00059be4       __mbsnbicoll_l             1005abe4 f   LIBCMT:mbsnbico.obj
 0001:00059cd0       __mbsnbicoll               1005acd0 f   LIBCMT:mbsnbico.obj
 0001:00059ce7       ___wtomb_environ           1005ace7 f   LIBCMT:wtombenv.obj
 0001:00059d7c       _strnlen                   1005ad7c f   LIBCMT:strlen_s.obj
 0001:0005a013       ___crtLCMapStringW         1005b013 f   LIBCMT:w_map.obj
 0001:0005a3f6       ___crtCompareStringA       1005b3f6 f   LIBCMT:a_cmp.obj
 0001:0005a436       __strnicoll_l              1005b436 f   LIBCMT:strnicol.obj
 0001:0005a52e       __strnicoll                1005b52e f   LIBCMT:strnicol.obj
 0001:0005a5ff       ___crtsetenv               1005b5ff f   LIBCMT:setenv.obj
 0001:0005a846       __strdup                   1005b846 f   LIBCMT:strdup.obj
 0001:0005a896       __mbschr_l                 1005b896 f   LIBCMT:mbschr.obj
 0001:0005a950       __mbschr                   1005b950 f   LIBCMT:mbschr.obj
 0001:0005a964       _WideCharToMultiByte@32    1005b964 f   kernel32:KERNEL32.dll
 0001:0005a96a       _InterlockedIncrement@4    1005b96a f   kernel32:KERNEL32.dll
 0001:0005a970       _InterlockedDecrement@4    1005b970 f   kernel32:KERNEL32.dll
 0001:0005a976       _InterlockedCompareExchange@12 1005b976 f   kernel32:KERNEL32.dll
 0001:0005a97c       _InterlockedExchange@8     1005b97c f   kernel32:KERNEL32.dll
 0001:0005a982       _MultiByteToWideChar@24    1005b982 f   kernel32:KERNEL32.dll
 0001:0005a988       _InitializeCriticalSection@4 1005b988 f   kernel32:KERNEL32.dll
 0001:0005a98e       _DeleteCriticalSection@4   1005b98e f   kernel32:KERNEL32.dll
 0001:0005a994       _EnterCriticalSection@4    1005b994 f   kernel32:KERNEL32.dll
 0001:0005a99a       _LeaveCriticalSection@4    1005b99a f   kernel32:KERNEL32.dll
 0001:0005a9a0       _SetLastError@4            1005b9a0 f   kernel32:KERNEL32.dll
 0001:0005a9a6       _FlushInstructionCache@12  1005b9a6 f   kernel32:KERNEL32.dll
 0001:0005a9ac       _FreeLibrary@4             1005b9ac f   kernel32:KERNEL32.dll
 0001:0005a9b2       _VirtualQuery@12           1005b9b2 f   kernel32:KERNEL32.dll
 0001:0005a9b8       _GetLastError@0            1005b9b8 f   kernel32:KERNEL32.dll
 0001:0005a9be       _HeapFree@12               1005b9be f   kernel32:KERNEL32.dll
 0001:0005a9c4       _TerminateProcess@8        1005b9c4 f   kernel32:KERNEL32.dll
 0001:0005a9ca       _UnhandledExceptionFilter@4 1005b9ca f   kernel32:KERNEL32.dll
 0001:0005a9d0       _SetUnhandledExceptionFilter@4 1005b9d0 f   kernel32:KERNEL32.dll
 0001:0005a9d6       _IsDebuggerPresent@0       1005b9d6 f   kernel32:KERNEL32.dll
 0001:0005a9dc       _RaiseException@16         1005b9dc f   kernel32:KERNEL32.dll
 0001:0005a9e2       _RtlUnwind@16              1005b9e2 f   kernel32:KERNEL32.dll
 0001:0005a9e8       _GetCurrentThreadId@0      1005b9e8 f   kernel32:KERNEL32.dll
 0001:0005a9ee       _GetCommandLineA@0         1005b9ee f   kernel32:KERNEL32.dll
 0001:0005a9f4       _GetVersionExA@4           1005b9f4 f   kernel32:KERNEL32.dll
 0001:0005a9fa       _HeapAlloc@12              1005b9fa f   kernel32:KERNEL32.dll
 0001:0005aa00       _GetProcessHeap@0          1005ba00 f   kernel32:KERNEL32.dll
 0001:0005aa06       _LCMapStringA@24           1005ba06 f   kernel32:KERNEL32.dll
 0001:0005aa0c       _LCMapStringW@24           1005ba0c f   kernel32:KERNEL32.dll
 0001:0005aa12       _GetCPInfo@8               1005ba12 f   kernel32:KERNEL32.dll
 0001:0005aa18       _ExitProcess@4             1005ba18 f   kernel32:KERNEL32.dll
 0001:0005aa1e       _HeapDestroy@4             1005ba1e f   kernel32:KERNEL32.dll
 0001:0005aa24       _HeapCreate@12             1005ba24 f   kernel32:KERNEL32.dll
 0001:0005aa2a       _VirtualFree@12            1005ba2a f   kernel32:KERNEL32.dll
 0001:0005aa30       _FatalAppExitA@8           1005ba30 f   kernel32:KERNEL32.dll
 0001:0005aa36       _VirtualAlloc@16           1005ba36 f   kernel32:KERNEL32.dll
 0001:0005aa3c       _HeapReAlloc@16            1005ba3c f   kernel32:KERNEL32.dll
 0001:0005aa42       _GetACP@0                  1005ba42 f   kernel32:KERNEL32.dll
 0001:0005aa48       _GetOEMCP@0                1005ba48 f   kernel32:KERNEL32.dll
 0001:0005aa4e       _TlsGetValue@4             1005ba4e f   kernel32:KERNEL32.dll
 0001:0005aa54       _TlsAlloc@0                1005ba54 f   kernel32:KERNEL32.dll
 0001:0005aa5a       _TlsSetValue@8             1005ba5a f   kernel32:KERNEL32.dll
 0001:0005aa60       _TlsFree@4                 1005ba60 f   kernel32:KERNEL32.dll
 0001:0005aa66       _GetCurrentThread@0        1005ba66 f   kernel32:KERNEL32.dll
 0001:0005aa6c       _SetHandleCount@4          1005ba6c f   kernel32:KERNEL32.dll
 0001:0005aa72       _GetStdHandle@4            1005ba72 f   kernel32:KERNEL32.dll
 0001:0005aa78       _GetFileType@4             1005ba78 f   kernel32:KERNEL32.dll
 0001:0005aa7e       _GetStartupInfoA@4         1005ba7e f   kernel32:KERNEL32.dll
 0001:0005aa84       _WriteFile@20              1005ba84 f   kernel32:KERNEL32.dll
 0001:0005aa8a       _GetConsoleCP@0            1005ba8a f   kernel32:KERNEL32.dll
 0001:0005aa90       _GetConsoleMode@8          1005ba90 f   kernel32:KERNEL32.dll
 0001:0005aa96       _FlushFileBuffers@4        1005ba96 f   kernel32:KERNEL32.dll
 0001:0005aa9c       _SetFilePointer@16         1005ba9c f   kernel32:KERNEL32.dll
 0001:0005aaa2       _HeapSize@12               1005baa2 f   kernel32:KERNEL32.dll
 0001:0005aaa8       _GetModuleFileNameA@12     1005baa8 f   kernel32:KERNEL32.dll
 0001:0005aaae       _FreeEnvironmentStringsA@4 1005baae f   kernel32:KERNEL32.dll
 0001:0005aab4       _GetEnvironmentStrings@0   1005bab4 f   kernel32:KERNEL32.dll
 0001:0005aaba       _FreeEnvironmentStringsW@4 1005baba f   kernel32:KERNEL32.dll
 0001:0005aac0       _GetEnvironmentStringsW@0  1005bac0 f   kernel32:KERNEL32.dll
 0001:0005aac6       _QueryPerformanceCounter@4 1005bac6 f   kernel32:KERNEL32.dll
 0001:0005aacc       _GetTickCount@0            1005bacc f   kernel32:KERNEL32.dll
 0001:0005aad2       _GetCurrentProcessId@0     1005bad2 f   kernel32:KERNEL32.dll
 0001:0005aad8       _GetSystemTimeAsFileTime@4 1005bad8 f   kernel32:KERNEL32.dll
 0001:0005aade       _GetLocaleInfoA@16         1005bade f   kernel32:KERNEL32.dll
 0001:0005aae4       _GetStringTypeA@20         1005bae4 f   kernel32:KERNEL32.dll
 0001:0005aaea       _GetStringTypeW@16         1005baea f   kernel32:KERNEL32.dll
 0001:0005aaf0       _GetDateFormatA@24         1005baf0 f   kernel32:KERNEL32.dll
 0001:0005aaf6       _GetUserDefaultLCID@0      1005baf6 f   kernel32:KERNEL32.dll
 0001:0005aafc       _EnumSystemLocalesA@8      1005bafc f   kernel32:KERNEL32.dll
 0001:0005ab02       _IsValidLocale@8           1005bb02 f   kernel32:KERNEL32.dll
 0001:0005ab08       _IsValidCodePage@4         1005bb08 f   kernel32:KERNEL32.dll
 0001:0005ab0e       _SetConsoleCtrlHandler@8   1005bb0e f   kernel32:KERNEL32.dll
 0001:0005ab14       _ReadFile@20               1005bb14 f   kernel32:KERNEL32.dll
 0001:0005ab1a       _WriteConsoleA@20          1005bb1a f   kernel32:KERNEL32.dll
 0001:0005ab20       _GetConsoleOutputCP@0      1005bb20 f   kernel32:KERNEL32.dll
 0001:0005ab26       _WriteConsoleW@20          1005bb26 f   kernel32:KERNEL32.dll
 0001:0005ab2c       _SetStdHandle@8            1005bb2c f   kernel32:KERNEL32.dll
 0001:0005ab32       _GetLocaleInfoW@16         1005bb32 f   kernel32:KERNEL32.dll
 0001:0005ab38       _GetTimeZoneInformation@4  1005bb38 f   kernel32:KERNEL32.dll
 0001:0005ab3e       _CreateFileA@28            1005bb3e f   kernel32:KERNEL32.dll
 0001:0005ab44       _CreateFileW@28            1005bb44 f   kernel32:KERNEL32.dll
 0001:0005ab4a       _SetEndOfFile@4            1005bb4a f   kernel32:KERNEL32.dll
 0001:0005ab50       _CompareStringA@24         1005bb50 f   kernel32:KERNEL32.dll
 0001:0005ab56       _CompareStringW@24         1005bb56 f   kernel32:KERNEL32.dll
 0001:0005ab5c       _SetEnvironmentVariableA@8 1005bb5c f   kernel32:KERNEL32.dll
 0001:0005ab62       _DirectInput8Create@20     1005bb62 f   dinput8:DINPUT8.dll
 0002:00000000       ___xc_a                    1006f000     LIBCMT:crt0init.obj
 0002:000004e8       ___xc_z                    1006f4e8     LIBCMT:crt0init.obj
 0002:000005ec       ___xi_a                    1006f5ec     LIBCMT:crt0init.obj
 0002:00000a10       ___xi_z                    1006fa10     LIBCMT:crt0init.obj
 0002:00000b14       ___xp_a                    1006fb14     LIBCMT:crt0init.obj
 0002:00000e20       ___xp_z                    1006fe20     LIBCMT:crt0init.obj
 0002:00000f24       ___xt_a                    1006ff24     LIBCMT:crt0init.obj
 0002:0000112c       ___xt_z                    1007012c     LIBCMT:crt0init.obj
 0002:0000124c       ??_C@_05MNDPPJJJ@Super?$AA@ 1007024c     dllmain.obj
 0002:00001254       ??_C@_04HABAFPJG@Fast?$AA@ 10070254     dllmain.obj
 0002:0000125c       ??_C@_06LHIDHMIE@Medium?$AA@ 1007025c     dllmain.obj
 0002:00001264       ??_C@_08FAJHOPML@Engineer?$AA@ 10070264     dllmain.obj
 0002:00001270       ??_C@_0N@NKLHHIIN@Heavy?5Troper?$AA@ 10070270     dllmain.obj
 0002:00001280       ??_C@_07NNPBNHNJ@Assault?$AA@ 10070280     dllmain.obj
 0002:0000128c       ??_C@_06OOFIBKJO@Sniper?$AA@ 1007028c     dllmain.obj
 0002:00001294       ??_C@_05BBLLBHEM@Medic?$AA@ 10070294     dllmain.obj
 0002:0000129c       ??_C@_03GCDBBDDL@Off?$AA@  1007029c     dllmain.obj
 0002:000012a0       ??_C@_06ICCAKDNH@Yellow?$AA@ 100702a0     dllmain.obj
 0002:000012a8       ??_C@_06LMIDBFFB@Orange?$AA@ 100702a8     dllmain.obj
 0002:000012b0       ??_C@_04ICNCCCFD@Cyan?$AA@ 100702b0     dllmain.obj
 0002:000012b8       ??_C@_04CAKOHOCJ@Blue?$AA@ 100702b8     dllmain.obj
 0002:000012c0       ??_C@_05PLKILNHI@White?$AA@ 100702c0     dllmain.obj
 0002:000012c8       ??_C@_03PADCEAKC@Red?$AA@  100702c8     dllmain.obj
 0002:000012cc       ??_C@_05GGOIJPPE@Green?$AA@ 100702cc     dllmain.obj
 0002:000012d4       ??_C@_01MIFGBAGJ@?$CL?$AA@ 100702d4     dllmain.obj
 0002:000012d8       ??_C@_09NPNGOBGK@BF2?5v1?450?$AA@ 100702d8     dllmain.obj
 0002:000012e4       ??_C@_0M@JLCMDAFO@Version?51?42?$AA@ 100702e4     dllmain.obj
 0002:000012f8       ??_C@_0EI@NAPBIJNI@?6BF2?5v1?450?5Hack?6?6Coded?5by?5RaKS?6?6@ 100702f8     dllmain.obj
 0002:00001350       ??_C@_0BI@NLNBIPJH@http?3?1?1unknowncheats?4me?$AA@ 10070350     dllmain.obj
 0002:0000136c       ??_C@_0BO@OJAGPKHF@?4?3?3?$FNRaX?5Battlefield?52?5HaX?$FL?3?3?4?$AA@ 1007036c     dllmain.obj
 0002:00001390       ??_C@_04BFCCBDOP@Head?$AA@ 10070390     dllmain.obj
 0002:00001398       ??_C@_0P@GHFPNOJB@bad?5allocation?$AA@ 10070398     dllmain.obj
 0002:000013ac       ?collate@?$_Locbase@H@std@@2HB 100703ac     dllmain.obj
 0002:000013b0       ?ctype@?$_Locbase@H@std@@2HB 100703b0     dllmain.obj
 0002:000013b4       ?monetary@?$_Locbase@H@std@@2HB 100703b4     dllmain.obj
 0002:000013b8       ?numeric@?$_Locbase@H@std@@2HB 100703b8     dllmain.obj
 0002:000013bc       ?time@?$_Locbase@H@std@@2HB 100703bc     dllmain.obj
 0002:000013c0       ?messages@?$_Locbase@H@std@@2HB 100703c0     dllmain.obj
 0002:000013c4       ?all@?$_Locbase@H@std@@2HB 100703c4     dllmain.obj
 0002:000013c8       ?none@?$_Locbase@H@std@@2HB 100703c8     dllmain.obj
 0002:000013cc       ?table_size@?$ctype@D@std@@2IB 100703cc     dllmain.obj
 0002:000013d0       ?skipws@?$_Iosb@H@std@@2W4_Fmtflags@12@B 100703d0     dllmain.obj
 0002:000013d4       ?unitbuf@?$_Iosb@H@std@@2W4_Fmtflags@12@B 100703d4     dllmain.obj
 0002:000013d8       ?uppercase@?$_Iosb@H@std@@2W4_Fmtflags@12@B 100703d8     dllmain.obj
 0002:000013dc       ?showbase@?$_Iosb@H@std@@2W4_Fmtflags@12@B 100703dc     dllmain.obj
 0002:000013e0       ?showpoint@?$_Iosb@H@std@@2W4_Fmtflags@12@B 100703e0     dllmain.obj
 0002:000013e4       ?showpos@?$_Iosb@H@std@@2W4_Fmtflags@12@B 100703e4     dllmain.obj
 0002:000013e8       ?left@?$_Iosb@H@std@@2W4_Fmtflags@12@B 100703e8     dllmain.obj
 0002:000013ec       ?right@?$_Iosb@H@std@@2W4_Fmtflags@12@B 100703ec     dllmain.obj
 0002:000013f0       ?internal@?$_Iosb@H@std@@2W4_Fmtflags@12@B 100703f0     dllmain.obj
 0002:000013f4       ?dec@?$_Iosb@H@std@@2W4_Fmtflags@12@B 100703f4     dllmain.obj
 0002:000013f8       ?oct@?$_Iosb@H@std@@2W4_Fmtflags@12@B 100703f8     dllmain.obj
 0002:000013fc       ?hex@?$_Iosb@H@std@@2W4_Fmtflags@12@B 100703fc     dllmain.obj
 0002:00001400       ?scientific@?$_Iosb@H@std@@2W4_Fmtflags@12@B 10070400     dllmain.obj
 0002:00001404       ?fixed@?$_Iosb@H@std@@2W4_Fmtflags@12@B 10070404     dllmain.obj
 0002:00001408       ?boolalpha@?$_Iosb@H@std@@2W4_Fmtflags@12@B 10070408     dllmain.obj
 0002:0000140c       ?_Stdio@?$_Iosb@H@std@@2W4_Fmtflags@12@B 1007040c     dllmain.obj
 0002:00001410       ?adjustfield@?$_Iosb@H@std@@2W4_Fmtflags@12@B 10070410     dllmain.obj
 0002:00001414       ?basefield@?$_Iosb@H@std@@2W4_Fmtflags@12@B 10070414     dllmain.obj
 0002:00001418       ?floatfield@?$_Iosb@H@std@@2W4_Fmtflags@12@B 10070418     dllmain.obj
 0002:0000141c       ?goodbit@?$_Iosb@H@std@@2W4_Iostate@12@B 1007041c     dllmain.obj
 0002:00001420       ?eofbit@?$_Iosb@H@std@@2W4_Iostate@12@B 10070420     dllmain.obj
 0002:00001424       ?failbit@?$_Iosb@H@std@@2W4_Iostate@12@B 10070424     dllmain.obj
 0002:00001428       ?badbit@?$_Iosb@H@std@@2W4_Iostate@12@B 10070428     dllmain.obj
 0002:0000142c       ?_Hardfail@?$_Iosb@H@std@@2W4_Iostate@12@B 1007042c     dllmain.obj
 0002:00001430       ?in@?$_Iosb@H@std@@2W4_Openmode@12@B 10070430     dllmain.obj
 0002:00001434       ?out@?$_Iosb@H@std@@2W4_Openmode@12@B 10070434     dllmain.obj
 0002:00001438       ?ate@?$_Iosb@H@std@@2W4_Openmode@12@B 10070438     dllmain.obj
 0002:0000143c       ?app@?$_Iosb@H@std@@2W4_Openmode@12@B 1007043c     dllmain.obj
 0002:00001440       ?trunc@?$_Iosb@H@std@@2W4_Openmode@12@B 10070440     dllmain.obj
 0002:00001444       ?_Nocreate@?$_Iosb@H@std@@2W4_Openmode@12@B 10070444     dllmain.obj
 0002:00001448       ?_Noreplace@?$_Iosb@H@std@@2W4_Openmode@12@B 10070448     dllmain.obj
 0002:0000144c       ?binary@?$_Iosb@H@std@@2W4_Openmode@12@B 1007044c     dllmain.obj
 0002:00001450       ?beg@?$_Iosb@H@std@@2W4_Seekdir@12@B 10070450     dllmain.obj
 0002:00001454       ?cur@?$_Iosb@H@std@@2W4_Seekdir@12@B 10070454     dllmain.obj
 0002:00001458       ?end@?$_Iosb@H@std@@2W4_Seekdir@12@B 10070458     dllmain.obj
 0002:0000145c       ?has_denorm@_Num_base@std@@2W4float_denorm_style@2@B 1007045c     dllmain.obj
 0002:00001460       ?has_denorm_loss@_Num_base@std@@2_NB 10070460     dllmain.obj
 0002:00001461       ?has_infinity@_Num_base@std@@2_NB 10070461     dllmain.obj
 0002:00001462       ?has_quiet_NaN@_Num_base@std@@2_NB 10070462     dllmain.obj
 0002:00001463       ?has_signaling_NaN@_Num_base@std@@2_NB 10070463     dllmain.obj
 0002:00001464       ?is_bounded@_Num_base@std@@2_NB 10070464     dllmain.obj
 0002:00001465       ?is_exact@_Num_base@std@@2_NB 10070465     dllmain.obj
 0002:00001466       ?is_iec559@_Num_base@std@@2_NB 10070466     dllmain.obj
 0002:00001467       ?is_integer@_Num_base@std@@2_NB 10070467     dllmain.obj
 0002:00001468       ?is_modulo@_Num_base@std@@2_NB 10070468     dllmain.obj
 0002:00001469       ?is_signed@_Num_base@std@@2_NB 10070469     dllmain.obj
 0002:0000146a       ?is_specialized@_Num_base@std@@2_NB 1007046a     dllmain.obj
 0002:0000146b       ?tinyness_before@_Num_base@std@@2_NB 1007046b     dllmain.obj
 0002:0000146c       ?traps@_Num_base@std@@2_NB 1007046c     dllmain.obj
 0002:00001470       ?round_style@_Num_base@std@@2W4float_round_style@2@B 10070470     dllmain.obj
 0002:00001474       ?digits@_Num_base@std@@2HB 10070474     dllmain.obj
 0002:00001478       ?digits10@_Num_base@std@@2HB 10070478     dllmain.obj
 0002:0000147c       ?max_exponent@_Num_base@std@@2HB 1007047c     dllmain.obj
 0002:00001480       ?max_exponent10@_Num_base@std@@2HB 10070480     dllmain.obj
 0002:00001484       ?min_exponent@_Num_base@std@@2HB 10070484     dllmain.obj
 0002:00001488       ?min_exponent10@_Num_base@std@@2HB 10070488     dllmain.obj
 0002:0000148c       ?radix@_Num_base@std@@2HB  1007048c     dllmain.obj
 0002:00001490       ?is_bounded@_Num_int_base@std@@2_NB 10070490     dllmain.obj
 0002:00001491       ?is_exact@_Num_int_base@std@@2_NB 10070491     dllmain.obj
 0002:00001492       ?is_integer@_Num_int_base@std@@2_NB 10070492     dllmain.obj
 0002:00001493       ?is_modulo@_Num_int_base@std@@2_NB 10070493     dllmain.obj
 0002:00001494       ?is_specialized@_Num_int_base@std@@2_NB 10070494     dllmain.obj
 0002:00001498       ?radix@_Num_int_base@std@@2HB 10070498     dllmain.obj
 0002:0000149c       ?has_denorm@_Num_float_base@std@@2W4float_denorm_style@2@B 1007049c     dllmain.obj
 0002:000014a0       ?has_denorm_loss@_Num_float_base@std@@2_NB 100704a0     dllmain.obj
 0002:000014a1       ?has_infinity@_Num_float_base@std@@2_NB 100704a1     dllmain.obj
 0002:000014a2       ?has_quiet_NaN@_Num_float_base@std@@2_NB 100704a2     dllmain.obj
 0002:000014a3       ?has_signaling_NaN@_Num_float_base@std@@2_NB 100704a3     dllmain.obj
 0002:000014a4       ?is_bounded@_Num_float_base@std@@2_NB 100704a4     dllmain.obj
 0002:000014a5       ?is_exact@_Num_float_base@std@@2_NB 100704a5     dllmain.obj
 0002:000014a6       ?is_iec559@_Num_float_base@std@@2_NB 100704a6     dllmain.obj
 0002:000014a7       ?is_integer@_Num_float_base@std@@2_NB 100704a7     dllmain.obj
 0002:000014a8       ?is_modulo@_Num_float_base@std@@2_NB 100704a8     dllmain.obj
 0002:000014a9       ?is_signed@_Num_float_base@std@@2_NB 100704a9     dllmain.obj
 0002:000014aa       ?is_specialized@_Num_float_base@std@@2_NB 100704aa     dllmain.obj
 0002:000014ab       ?tinyness_before@_Num_float_base@std@@2_NB 100704ab     dllmain.obj
 0002:000014ac       ?traps@_Num_float_base@std@@2_NB 100704ac     dllmain.obj
 0002:000014b0       ?round_style@_Num_float_base@std@@2W4float_round_style@2@B 100704b0     dllmain.obj
 0002:000014b4       ?radix@_Num_float_base@std@@2HB 100704b4     dllmain.obj
 0002:000014b8       ?is_signed@?$numeric_limits@D@std@@2_NB 100704b8     dllmain.obj
 0002:000014bc       ?digits@?$numeric_limits@D@std@@2HB 100704bc     dllmain.obj
 0002:000014c0       ?digits10@?$numeric_limits@D@std@@2HB 100704c0     dllmain.obj
 0002:000014c4       ?is_signed@?$numeric_limits@_W@std@@2_NB 100704c4     dllmain.obj
 0002:000014c8       ?digits@?$numeric_limits@_W@std@@2HB 100704c8     dllmain.obj
 0002:000014cc       ?digits10@?$numeric_limits@_W@std@@2HB 100704cc     dllmain.obj
 0002:000014d0       ?is_modulo@?$numeric_limits@_N@std@@2_NB 100704d0     dllmain.obj
 0002:000014d1       ?is_signed@?$numeric_limits@_N@std@@2_NB 100704d1     dllmain.obj
 0002:000014d4       ?digits@?$numeric_limits@_N@std@@2HB 100704d4     dllmain.obj
 0002:000014d8       ?digits10@?$numeric_limits@_N@std@@2HB 100704d8     dllmain.obj
 0002:000014dc       ?is_signed@?$numeric_limits@C@std@@2_NB 100704dc     dllmain.obj
 0002:000014e0       ?digits@?$numeric_limits@C@std@@2HB 100704e0     dllmain.obj
 0002:000014e4       ?digits10@?$numeric_limits@C@std@@2HB 100704e4     dllmain.obj
 0002:000014e8       ?is_signed@?$numeric_limits@E@std@@2_NB 100704e8     dllmain.obj
 0002:000014ec       ?digits@?$numeric_limits@E@std@@2HB 100704ec     dllmain.obj
 0002:000014f0       ?digits10@?$numeric_limits@E@std@@2HB 100704f0     dllmain.obj
 0002:000014f4       ?is_signed@?$numeric_limits@F@std@@2_NB 100704f4     dllmain.obj
 0002:000014f8       ?digits@?$numeric_limits@F@std@@2HB 100704f8     dllmain.obj
 0002:000014fc       ?digits10@?$numeric_limits@F@std@@2HB 100704fc     dllmain.obj
 0002:00001500       ?is_signed@?$numeric_limits@G@std@@2_NB 10070500     dllmain.obj
 0002:00001504       ?digits@?$numeric_limits@G@std@@2HB 10070504     dllmain.obj
 0002:00001508       ?digits10@?$numeric_limits@G@std@@2HB 10070508     dllmain.obj
 0002:0000150c       ?is_signed@?$numeric_limits@H@std@@2_NB 1007050c     dllmain.obj
 0002:00001510       ?digits@?$numeric_limits@H@std@@2HB 10070510     dllmain.obj
 0002:00001514       ?digits10@?$numeric_limits@H@std@@2HB 10070514     dllmain.obj
 0002:00001518       ?is_signed@?$numeric_limits@I@std@@2_NB 10070518     dllmain.obj
 0002:0000151c       ?digits@?$numeric_limits@I@std@@2HB 1007051c     dllmain.obj
 0002:00001520       ?digits10@?$numeric_limits@I@std@@2HB 10070520     dllmain.obj
 0002:00001524       ?is_signed@?$numeric_limits@J@std@@2_NB 10070524     dllmain.obj
 0002:00001528       ?digits@?$numeric_limits@J@std@@2HB 10070528     dllmain.obj
 0002:0000152c       ?digits10@?$numeric_limits@J@std@@2HB 1007052c     dllmain.obj
 0002:00001530       ?is_signed@?$numeric_limits@K@std@@2_NB 10070530     dllmain.obj
 0002:00001534       ?digits@?$numeric_limits@K@std@@2HB 10070534     dllmain.obj
 0002:00001538       ?digits10@?$numeric_limits@K@std@@2HB 10070538     dllmain.obj
 0002:0000153c       ?is_signed@?$numeric_limits@_J@std@@2_NB 1007053c     dllmain.obj
 0002:00001540       ?digits@?$numeric_limits@_J@std@@2HB 10070540     dllmain.obj
 0002:00001544       ?digits10@?$numeric_limits@_J@std@@2HB 10070544     dllmain.obj
 0002:00001548       ?is_signed@?$numeric_limits@_K@std@@2_NB 10070548     dllmain.obj
 0002:0000154c       ?digits@?$numeric_limits@_K@std@@2HB 1007054c     dllmain.obj
 0002:00001550       ?digits10@?$numeric_limits@_K@std@@2HB 10070550     dllmain.obj
 0002:00001554       ?digits@?$numeric_limits@M@std@@2HB 10070554     dllmain.obj
 0002:00001558       ?digits10@?$numeric_limits@M@std@@2HB 10070558     dllmain.obj
 0002:0000155c       ?max_exponent@?$numeric_limits@M@std@@2HB 1007055c     dllmain.obj
 0002:00001560       ?max_exponent10@?$numeric_limits@M@std@@2HB 10070560     dllmain.obj
 0002:00001564       ?min_exponent@?$numeric_limits@M@std@@2HB 10070564     dllmain.obj
 0002:00001568       ?min_exponent10@?$numeric_limits@M@std@@2HB 10070568     dllmain.obj
 0002:0000156c       ?digits@?$numeric_limits@N@std@@2HB 1007056c     dllmain.obj
 0002:00001570       ?digits10@?$numeric_limits@N@std@@2HB 10070570     dllmain.obj
 0002:00001574       ?max_exponent@?$numeric_limits@N@std@@2HB 10070574     dllmain.obj
 0002:00001578       ?max_exponent10@?$numeric_limits@N@std@@2HB 10070578     dllmain.obj
 0002:0000157c       ?min_exponent@?$numeric_limits@N@std@@2HB 1007057c     dllmain.obj
 0002:00001580       ?min_exponent10@?$numeric_limits@N@std@@2HB 10070580     dllmain.obj
 0002:00001584       ?digits@?$numeric_limits@O@std@@2HB 10070584     dllmain.obj
 0002:00001588       ?digits10@?$numeric_limits@O@std@@2HB 10070588     dllmain.obj
 0002:0000158c       ?max_exponent@?$numeric_limits@O@std@@2HB 1007058c     dllmain.obj
 0002:00001590       ?max_exponent10@?$numeric_limits@O@std@@2HB 10070590     dllmain.obj
 0002:00001594       ?min_exponent@?$numeric_limits@O@std@@2HB 10070594     dllmain.obj
 0002:00001598       ?min_exponent10@?$numeric_limits@O@std@@2HB 10070598     dllmain.obj
 0002:000017e0       ??_7bad_alloc@std@@6B@     100707e0     dllmain.obj
 0002:000017f0       ??_7facet@locale@std@@6B@  100707f0     dllmain.obj
 0002:000017fc       ??_7codecvt_base@std@@6B@  100707fc     dllmain.obj
 0002:00001814       ??_7ctype_base@std@@6B@    10070814     dllmain.obj
 0002:00001820       ??_7ios_base@std@@6B@      10070820     dllmain.obj
 0002:00001828       __real@3f70101020000000    10070828     dllmain.obj
 0002:00001834       __real@00000000            10070834     dllmain.obj
 0002:00001838       __real@3fe0000000000000    10070838     dllmain.obj
 0002:00001848       __real@406fe00000000000    10070848     dllmain.obj
 0002:00001854       __real@3f800000            10070854     dllmain.obj
 0002:0000185c       ??_7CRayTest@@6B@          1007085c     dllmain.obj
 0002:00001870       __real@4f800000            10070870     dllmain.obj
 0002:00001878       __real@3ff0000000000000    10070878     dllmain.obj
 0002:00001888       __real@401921fb54442d18    10070888     dllmain.obj
 0002:00001898       __real@4024000000000000    10070898     dllmain.obj
 0002:000018a8       __real@4022000000000000    100708a8     dllmain.obj
 0002:000018b8       __real@4031000000000000    100708b8     dllmain.obj
 0002:000018c8       __real@4008000000000000    100708c8     dllmain.obj
 0002:000018d8       __real@4018000000000000    100708d8     dllmain.obj
 0002:000018e8       __real@4026000000000000    100708e8     dllmain.obj
 0002:000018f8       __real@402c000000000000    100708f8     dllmain.obj
 0002:00001908       __real@4034000000000000    10070908     dllmain.obj
 0002:00001914       __real@40000000            10070914     dllmain.obj
 0002:00001918       __real@402e000000000000    10070918     dllmain.obj
 0002:00001928       __real@4059000000000000    10070928     dllmain.obj
 0002:00001934       ??_C@_01MMEEDKFM@X?$AA@    10070934     dllmain.obj
 0002:00001938       ??_C@_01PPODPGHN@?$DO?$AA@ 10070938     dllmain.obj
 0002:0000193c       ??_C@_01MNNFJEPP@?$DM?$AA@ 1007093c     dllmain.obj
 0002:00001940       ??_C@_09GLFFPDKE@Functions?$AA@ 10070940     dllmain.obj
 0002:0000194c       ??_C@_04KJOBHKIC@?$FL?$CFi?$FN?$AA@ 1007094c     dllmain.obj
 0002:00001954       ??_C@_0L@BFBOGIEG@Right?5Hand?$AA@ 10070954     dllmain.obj
 0002:00001964       ??_C@_06DDNCOFEI@?$FLHNDR?$FN?$AA@ 10070964     dllmain.obj
 0002:0000196c       ??_C@_09CPMJCHBJ@Left?5Hand?$AA@ 1007096c     dllmain.obj
 0002:00001978       ??_C@_06CFGKGLDC@?$FLHNDL?$FN?$AA@ 10070978     dllmain.obj
 0002:00001980       ??_C@_05HPKPHHNI@Chest?$AA@ 10070980     dllmain.obj
 0002:00001988       ??_C@_06BPBGPDLP@?$FLCHST?$FN?$AA@ 10070988     dllmain.obj
 0002:00001990       ??_C@_06DIEBOKLL@Breast?$AA@ 10070990     dllmain.obj
 0002:00001998       ??_C@_06POBKKPDJ@?$FLBRST?$FN?$AA@ 10070998     dllmain.obj
 0002:000019a0       ??_C@_07KFHMCKEI@Stomach?$AA@ 100709a0     dllmain.obj
 0002:000019ac       ??_C@_05GEPPLGAM@?$FLSTM?$FN?$AA@ 100709ac     dllmain.obj
 0002:000019b4       ??_C@_0L@BPBNJHC@Right?5Foot?$AA@ 100709b4     dllmain.obj
 0002:000019c4       ??_C@_05NLIFEKLD@?$FLFTR?$FN?$AA@ 100709c4     dllmain.obj
 0002:000019cc       ??_C@_09DLCGJGCN@Left?5Foot?$AA@ 100709cc     dllmain.obj
 0002:000019d8       ??_C@_05MNDNMEMJ@?$FLFTL?$FN?$AA@ 100709d8     dllmain.obj
 0002:000019e0       ??_C@_06DCMJDNHD@?$FLHead?$FN?$AA@ 100709e0     dllmain.obj
 0002:000019e8       ??_C@_02FEPNEKN@DX?$AA@    100709e8     dllmain.obj
 0002:000019ec       ??_C@_0BD@IJCCAMHG@DirectInput8Create?$AA@ 100709ec     dllmain.obj
 0002:00001a04       ??_C@_0M@ONOEDIJO@dinput8?4dll?$AA@ 10070a04     dllmain.obj
 0002:00001a14       ??_C@_07DBKKGNKG@initDll?$AA@ 10070a14     dllmain.obj
 0002:00001a20       ??_C@_0M@KIFNMAPC@RendDx9?4dll?$AA@ 10070a20     dllmain.obj
 0002:00001a30       ??_C@_08PMMDPBMF@pbcl?4dll?$AA@ 10070a30     dllmain.obj
 0002:00001a3c       ??_C@_03IMIHNDMH@?YF?$AF?$AA@ 10070a3c     dllmain.obj
 0002:00001a40       ??_C@_03OGGPJLHJ@?YF8?$AA@ 10070a40     dllmain.obj
 0002:00001a44       ??_C@_01LOCGONAA@?$AA?$AA@ 10070a44     dllmain.obj
 0002:00001a48       ??_C@_01BACBFBOJ@?$KA?$AA@ 10070a48     dllmain.obj
 0002:00001a4c       ??_C@_02FBMEBOH@t?$AG?$AA@ 10070a4c     dllmain.obj
 0002:00001a50       ??_C@_02PEKHGENF@uF?$AA@   10070a50     dllmain.obj
 0002:00001a54       ??_C@_02ICIEFNCI@t?7?$AA@  10070a54     dllmain.obj
 0002:00001a58       ??_C@_02ENBGANNO@?$AP?$IF?$AA@ 10070a58     dllmain.obj
 0002:00001a5c       ??_C@_02PPPDKJGN@t?$AM?$AA@ 10070a5c     dllmain.obj
 0002:00001a60       ??_C@_02ENOCLNA@u?$AG?$AA@ 10070a60     dllmain.obj
 0002:00001a64       ??_C@_02PFGFAOOC@tF?$AA@   10070a64     dllmain.obj
 0002:00001a68       ??_C@_02IDEGDHBP@u?7?$AA@  10070a68     dllmain.obj
 0002:00001a6c       ??_C@_02FEANDMJP@?$AP?$IE?$AA@ 10070a6c     dllmain.obj
 0002:00001a70       ??_C@_02PODBMDFK@u?$AM?$AA@ 10070a70     dllmain.obj
 0002:00001a74       ??_C@_02IMOMBEAH@?$JA?$JA?$AA@ 10070a74     dllmain.obj
 0002:00001a78       ??_C@_02HDPLGAIM@?$HM?$BE?$AA@ 10070a78     dllmain.obj
 0002:00001a7c       ??_C@_02BMAHHAKG@t?$AH?$AA@ 10070a7c     dllmain.obj
 0002:00001a80       ??_C@_02MMAHKBNI@u?$AO?$AA@ 10070a80     dllmain.obj
 0002:00001a84       ??_C@_02FEPIFHD@ub?$AA@    10070a84     dllmain.obj
 0002:00001a88       ??_C@_02FJNAEBOO@tJ?$AA@   10070a88     dllmain.obj
 0002:00001a90       __real@4039000000000000    10070a90     dllmain.obj
 0002:00001aa0       __real@403e000000000000    10070aa0     dllmain.obj
 0002:00001ab0       __real@3f847ae147ae147b    10070ab0     dllmain.obj
 0002:00001ac0       __real@3ff553f7c0000000    10070ac0     dllmain.obj
 0002:00001ad0       __real@3fd3333340000000    10070ad0     dllmain.obj
 0002:00001ae0       __real@3f847ae140000000    10070ae0     dllmain.obj
 0002:00001aec       __real@3c23d70a            10070aec     dllmain.obj
 0002:00001af0       __real@3ff921fb54442d18    10070af0     dllmain.obj
 0002:00001afc       __real@bf800000            10070afc     dllmain.obj
 0002:00001b00       __real@4076800000000000    10070b00     dllmain.obj
 0002:00001b10       __real@4056800000000000    10070b10     dllmain.obj
 0002:00001b20       __real@400921fb54442d18    10070b20     dllmain.obj
 0002:00001b30       __real@4066800000000000    10070b30     dllmain.obj
 0002:00001b3c       __real@43870000            10070b3c     dllmain.obj
 0002:00001b40       __real@42b40000            10070b40     dllmain.obj
 0002:00001b48       __real@3f91df46a2529d39    10070b48     dllmain.obj
 0002:00001b58       __real@3f91df46a0000000    10070b58     dllmain.obj
 0002:00001b68       __real@3ff19999a0000000    10070b68     dllmain.obj
 0002:00001b78       __real@4014000000000000    10070b78     dllmain.obj
 0002:00001b84       __real@461c4000            10070b84     dllmain.obj
 0002:00001b88       __real@408f400000000000    10070b88     dllmain.obj
 0002:00001b98       __real@3f1a36e2eb1c432d    10070b98     dllmain.obj
 0002:00001ba8       __real@0000000000000000    10070ba8     dllmain.obj
 0002:00001bb8       __real@3ff3a5e360000000    10070bb8     dllmain.obj
 0002:00001bc4       __real@433e0000            10070bc4     dllmain.obj
 0002:00001bc8       __real@4f000000            10070bc8     dllmain.obj
 0002:00001bd0       __real@3fe8000000000000    10070bd0     dllmain.obj
 0002:00001bdc       __real@be32b8c2            10070bdc     dllmain.obj
 0002:00001be0       __real@3e32b8c2            10070be0     dllmain.obj
 0002:00001be8       __real@3fdbecde60000000    10070be8     dllmain.obj
 0002:00001bf4       __real@3fc90fdb            10070bf4     dllmain.obj
 0002:00001bf8       __real@bfc90fdb            10070bf8     dllmain.obj
 0002:00001c00       __real@3fc99999a0000000    10070c00     dllmain.obj
 0002:00001c10       __real@3fecccccc0000000    10070c10     dllmain.obj
 0002:00001c20       __real@3fd5555560000000    10070c20     dllmain.obj
 0002:00001c30       __real@3feb333340000000    10070c30     dllmain.obj
 0002:00001c40       __real@3fe3333340000000    10070c40     dllmain.obj
 0002:00001c50       __real@404ca5dc00000000    10070c50     dllmain.obj
 0002:00001c5c       __real@42960000            10070c5c     dllmain.obj
 0002:00001c60       __real@4049000000000000    10070c60     dllmain.obj
 0002:00001c6c       ??_C@_0BK@IGIECHKA@?$HM?$HM?5WARNING?5?3?5?$CFs?5?$FL?$CF?40f?$FN?5?$HM?$HM?$AA@ 10070c6c     dllmain.obj
 0002:00001c8c       ??_C@_0BB@EKCFLDKC@Explosive?5Nearby?$AA@ 10070c8c     dllmain.obj
 0002:00001ca0       __real@41200000            10070ca0     dllmain.obj
 0002:00001ca4       ??_C@_09DOIKKMF@Artillery?$AA@ 10070ca4     dllmain.obj
 0002:00001cb0       ??_C@_0BE@NKHGAMEA@Missile?5Approaching?$AA@ 10070cb0     dllmain.obj
 0002:00001cc8       ??_C@_0BK@CCCNPAAJ@Enemy?9Lock?5?$CIDeployFlares?$CJ?$AA@ 10070cc8     dllmain.obj
 0002:00001ce8       ??_C@_0BH@INLGBFOL@TV?9Missile?5Approaching?$AA@ 10070ce8     dllmain.obj
 0002:00001d04       __real@bf99999a            10070d04     dllmain.obj
 0002:00001d08       __real@3e99999a            10070d08     dllmain.obj
 0002:00001d0c       __real@3f000000            10070d0c     dllmain.obj
 0002:00001d10       __real@3f19999a            10070d10     dllmain.obj
 0002:00001d14       __real@3ecccccd            10070d14     dllmain.obj
 0002:00001d18       __real@bf000000            10070d18     dllmain.obj
 0002:00001d1c       __real@becccccd            10070d1c     dllmain.obj
 0002:00001d20       __real@4002cccccccccccd    10070d20     dllmain.obj
 0002:00001d2c       ??_C@_02NJPGOMH@?$CFf?$AA@ 10070d2c     dllmain.obj
 0002:00001d30       ??_C@_04LOAJBDKD@true?$AA@ 10070d30     dllmain.obj
 0002:00001d38       ??_C@_02DKCKIIND@?$CFs?$AA@ 10070d38     dllmain.obj
 0002:00001d3c       ??_C@_05MKDOIIA@False?$AA@ 10070d3c     dllmain.obj
 0002:00001d44       ??_C@_04HPMIDMKH@True?$AA@ 10070d44     dllmain.obj
 0002:00001d4c       ??_C@_02DPKJAMEF@?$CFd?$AA@ 10070d4c     dllmain.obj
 0002:00001d50       ??_C@_0M@MJBFLKNI@Auto?9Flares?$AA@ 10070d50     dllmain.obj
 0002:00001d60       ??_C@_0O@MIDCJOGI@DangerWarning?$AA@ 10070d60     dllmain.obj
 0002:00001d70       ??_C@_09GDENODPO@ObjectESP?$AA@ 10070d70     dllmain.obj
 0002:00001d7c       ??_C@_08MGOEOFIE@Wallhack?$AA@ 10070d7c     dllmain.obj
 0002:00001d88       ??_C@_0O@JDHJFADM@ASUS?5Wallhack?$AA@ 10070d88     dllmain.obj
 0002:00001d98       ??_C@_0BF@LPJCMADM@Radar?5?$CG?5Bridge?5Icons?$AA@ 10070d98     dllmain.obj
 0002:00001db4       ??_C@_0BB@MLNILNEC@Enemy?5Mines?5Icon?$AA@ 10070db4     dllmain.obj
 0002:00001dc8       ??_C@_0N@GPKLPHEM@3D?5Map?5Icons?$AA@ 10070dc8     dllmain.obj
 0002:00001dd8       ??_C@_0L@NAGNJCKB@No?5Overlay?$AA@ 10070dd8     dllmain.obj
 0002:00001de8       ??_C@_0O@HMAHNBLB@View?5Distance?$AA@ 10070de8     dllmain.obj
 0002:00001df8       ??_C@_0M@EOPCHDPO@CustomXHair?$AA@ 10070df8     dllmain.obj
 0002:00001e08       ??_C@_0BC@OEDNIBPH@SpeedHackModifier?$AA@ 10070e08     dllmain.obj
 0002:00001e20       ??_C@_08GOFGBMGK@TVStatic?$AA@ 10070e20     dllmain.obj
 0002:00001e2c       ??_C@_08BOLMKHEK@No?5Hands?$AA@ 10070e2c     dllmain.obj
 0002:00001e38       ??_C@_07IHPCOKGF@DrawFPS?$AA@ 10070e38     dllmain.obj
 0002:00001e44       ??_C@_0BA@HOFEMNPH@AimAtYouWarning?$AA@ 10070e44     dllmain.obj
 0002:00001e58       ??_C@_0BE@GLIBDPEG@EnemyNearbyDistance?$AA@ 10070e58     dllmain.obj
 0002:00001e70       ??_C@_0M@JLHCBMOE@EnemyNearby?$AA@ 10070e70     dllmain.obj
 0002:00001e80       ??_C@_0P@OHDCOPCO@Unlock?5Weapons?$AA@ 10070e80     dllmain.obj
 0002:00001e94       ??_C@_09IKFFICDJ@Speedhack?$AA@ 10070e94     dllmain.obj
 0002:00001ea0       ??_C@_09JOIHIAIG@Crosshair?$AA@ 10070ea0     dllmain.obj
 0002:00001eac       ??_C@_06BDLCFAMJ@Extras?$AA@ 10070eac     dllmain.obj
 0002:00001eb4       ??_C@_07DPNBHCLF@Minimap?$AA@ 10070eb4     dllmain.obj
 0002:00001ec0       ??_C@_0P@GHODLAJB@MaxAimDistance?$AA@ 10070ec0     dllmain.obj
 0002:00001ed4       ??_C@_0M@KPLOPABC@MaxAimAngle?$AA@ 10070ed4     dllmain.obj
 0002:00001ee4       ??_C@_0O@GHPJIPLE@AimPrediction?$AA@ 10070ee4     dllmain.obj
 0002:00001ef4       ??_C@_07MOBLGCOD@AimBone?$AA@ 10070ef4     dllmain.obj
 0002:00001f00       ??_C@_0BA@DJKHIELM@Ping?5Correction?$AA@ 10070f00     dllmain.obj
 0002:00001f14       ??_C@_0N@CIIKHGPB@AimAtVehicle?$AA@ 10070f14     dllmain.obj
 0002:00001f24       ??_C@_0L@GIKFNINI@DrawAimFOV?$AA@ 10070f24     dllmain.obj
 0002:00001f34       ??_C@_0O@FPDECDOD@LimitAimAngle?$AA@ 10070f34     dllmain.obj
 0002:00001f44       ??_C@_09MNLEEKLC@Autoshoot?$AA@ 10070f44     dllmain.obj
 0002:00001f50       ??_C@_07CHPOKBNF@NoShake?$AA@ 10070f50     dllmain.obj
 0002:00001f5c       ??_C@_08NIBMMEBC@NoSpread?$AA@ 10070f5c     dllmain.obj
 0002:00001f68       ??_C@_09FMFBDAEN@AimAssist?$AA@ 10070f68     dllmain.obj
 0002:00001f74       ??_C@_06FHEBLMEF@Aimbot?$AA@ 10070f74     dllmain.obj
 0002:00001f7c       ??_C@_06JCHAAIFE@Aimkey?$AA@ 10070f7c     dllmain.obj
 0002:00001f84       ??_C@_05JJFBEBFJ@Hands?$AA@ 10070f84     dllmain.obj
 0002:00001f8c       ??_C@_0L@MBCOMCBC@Explosives?$AA@ 10070f8c     dllmain.obj
 0002:00001f9c       ??_C@_0O@FCIDHFIC@GroundWeapons?$AA@ 10070f9c     dllmain.obj
 0002:00001fac       ??_C@_07DNEKOHB@Weapons?$AA@ 10070fac     dllmain.obj
 0002:00001fb8       ??_C@_08PCHLEHLK@Vehicles?$AA@ 10070fb8     dllmain.obj
 0002:00001fc4       ??_C@_0N@ONEIKOGO@EUROSoldiers?$AA@ 10070fc4     dllmain.obj
 0002:00001fd4       ??_C@_0M@KOKOKGPP@MECSoldiers?$AA@ 10070fd4     dllmain.obj
 0002:00001fe4       ??_C@_0O@PKEEOFLN@CHINASoldiers?$AA@ 10070fe4     dllmain.obj
 0002:00001ff4       ??_C@_05KJDEPIDC@Chams?$AA@ 10070ff4     dllmain.obj
 0002:00001ffc       ??_C@_0N@JBEAHNNH@USMCSoldiers?$AA@ 10070ffc     dllmain.obj
 0002:0000200c       ??_C@_0BK@EHFMOJJF@Unlimited?5CommanderAssets?$AA@ 1007100c     dllmain.obj
 0002:0000202c       ??_C@_0O@GMCKOL@Squad?5Jumping?$AA@ 1007102c     dllmain.obj
 0002:0000203c       ??_C@_0BD@CCNMEBDF@Force?5Squad?5Leader?$AA@ 1007103c     dllmain.obj
 0002:00002054       ??_C@_0BA@KDGLPFNM@Force?5Commander?$AA@ 10071054     dllmain.obj
 0002:00002068       ??_C@_04GBPANCCF@Team?$AA@ 10071068     dllmain.obj
 0002:00002070       ??_C@_09KEIDAILJ@Team?5Swap?$AA@ 10071070     dllmain.obj
 0002:0000207c       ??_C@_0M@FIPLJMLB@ESPDistance?$AA@ 1007107c     dllmain.obj
 0002:0000208c       ??_C@_08NBFHACLL@3D?5Boxes?$AA@ 1007108c     dllmain.obj
 0002:00002098       ??_C@_08LCCNDJMA@2D?5RADAR?$AA@ 10071098     dllmain.obj
 0002:000020a4       ??_C@_08BHDGIPFI@DrawTeam?$AA@ 100710a4     dllmain.obj
 0002:000020b0       ??_C@_05PDEKLOCK@Boxes?$AA@ 100710b0     dllmain.obj
 0002:000020b8       ??_C@_08HEGKIDKO@Skeleton?$AA@ 100710b8     dllmain.obj
 0002:000020c4       ??_C@_09FADNPJCJ@Snaplines?$AA@ 100710c4     dllmain.obj
 0002:000020d0       ??_C@_07CAPPKFEO@Posture?$AA@ 100710d0     dllmain.obj
 0002:000020dc       ??_C@_05EKAMNAII@Class?$AA@ 100710dc     dllmain.obj
 0002:000020e4       ??_C@_06CNADPKBM@No?5Sky?$AA@ 100710e4     dllmain.obj
 0002:000020ec       ??_C@_06JJIMMKLC@No?5Fog?$AA@ 100710ec     dllmain.obj
 0002:000020f4       ??_C@_0L@MMOOACNB@Healthbars?$AA@ 100710f4     dllmain.obj
 0002:00002104       ??_C@_0N@MLLLOEML@DistanceTags?$AA@ 10071104     dllmain.obj
 0002:00002114       ??_C@_03KGDAEFFB@ESP?$AA@  10071114     dllmain.obj
 0002:00002118       ??_C@_08GHPNABNE@Nametags?$AA@ 10071118     dllmain.obj
 0002:00002124       __real@4e6e6b28            10071124     dllmain.obj
 0002:00002128       __real@43960000            10071128     dllmain.obj
 0002:0000212c       ??_C@_08PFNAIGIB@TVAimKey?$AA@ 1007112c     dllmain.obj
 0002:00002138       ??_C@_09PLNCNMIK@JetAimKey?$AA@ 10071138     dllmain.obj
 0002:00002144       __real@43fa0000            10071144     dllmain.obj
 0002:0000214c       ??_7?$basic_ostream@DU?$char_traits@D@std@@@std@@6B@ 1007114c     dllmain.obj
 0002:00002158       ??_7?$basic_ios@DU?$char_traits@D@std@@@std@@6B@ 10071158     dllmain.obj
 0002:00002160       __real@4000000000000000    10071160     dllmain.obj
 0002:0000216c       ??_C@_01NBENCBCI@?$CK?$AA@ 1007116c     dllmain.obj
 0002:00002170       ??_C@_0CG@NBFONKE@Description?3?53D?5Boxes?6Draws?53D?5B@ 10071170     dllmain.obj
 0002:000021a0       ??_C@_0CG@NGCOHPOO@Description?3?52D?5RADAR?6Draws?52D?5R@ 100711a0     dllmain.obj
 0002:000021d0       ??_C@_0CM@MFMEPLHH@Description?3?5Draw?5Team?6Draws?5Tea@ 100711d0     dllmain.obj
 0002:00002204       ??_C@_0CO@CDPOCOAO@Description?3?5Box?5ESP?6Draw?5Box?5Ar@ 10071204     dllmain.obj
 0002:0000223c       ??_C@_0DA@DLOMNHDP@Description?3?5Skeleton?5ESP?6Draw?5P@ 1007123c     dllmain.obj
 0002:00002278       ??_C@_0DM@DDKPKEJE@Description?3?5Snaplines?6Draw?5Snap@ 10071278     dllmain.obj
 0002:000022c0       ??_C@_0DB@LPGHAEGP@Description?3?5Player?5Posture?6Draw@ 100712c0     dllmain.obj
 0002:000022fc       ??_C@_0CN@GAIPNAAC@Description?3?5Player?5Class?6Draw?5P@ 100712fc     dllmain.obj
 0002:00002334       ??_C@_0DC@HNIDBGLP@Description?3?5HealthBars?6Enable?5P@ 10071334     dllmain.obj
 0002:00002370       ??_C@_0DG@BPELCDHL@Description?3?5DistanceTags?6Enable@ 10071370     dllmain.obj
 0002:000023b0       ??_C@_0CO@BJAAONBN@Description?3?5NameTags?6Enable?5Pla@ 100713b0     dllmain.obj
 0002:000023e8       ??_C@_09DPHOEKHB@Draw?5Team?$AA@ 100713e8     dllmain.obj
 0002:000023f4       ??_C@_07NCKABMBA@Box?5ESP?$AA@ 100713f4     dllmain.obj
 0002:00002400       ??_C@_0N@DPPHLHFB@Skeleton?5ESP?$AA@ 10071400     dllmain.obj
 0002:00002410       ??_C@_0P@IBPHNGDE@Player?5Posture?$AA@ 10071410     dllmain.obj
 0002:00002424       ??_C@_0N@HMFCKNGB@Player?5Class?$AA@ 10071424     dllmain.obj
 0002:00002434       ??_C@_0L@NCPCNNF@HealthBars?$AA@ 10071434     dllmain.obj
 0002:00002444       ??_C@_08KGDMCONA@NameTags?$AA@ 10071444     dllmain.obj
 0002:00002450       ??_C@_0DK@HFGODNMO@Description?3?5?$HO?5CommAssets?6Enable@ 10071450     dllmain.obj
 0002:00002498       ??_C@_0FI@BEGIAIMC@Description?3?5Jump?5Squads?6Enables@ 10071498     dllmain.obj
 0002:00002508       ??_C@_0GD@KKBBEOOE@Description?3?5Force?5Squad?5Leader?6@ 10071508     dllmain.obj
 0002:00002580       ??_C@_0FK@KJDFJGFN@Description?3?5Force?5Commander?6Ena@ 10071580     dllmain.obj
 0002:000025f0       ??_C@_0EI@EGFCLKGF@Description?3?5Team?5Swap?6Enables?5T@ 100715f0     dllmain.obj
 0002:00002648       ??_C@_0M@NHOACNKN@Jump?5Squads?$AA@ 10071648     dllmain.obj
 0002:00002658       ??_C@_0CG@CIHPFNLP@Description?3?5Hands?6Enable?5Hand?5C@ 10071658     dllmain.obj
 0002:00002688       ??_C@_0DA@NJGLFDFD@Description?3?5Explosives?6Enable?5E@ 10071688     dllmain.obj
 0002:000026c4       ??_C@_0DI@DLECMDP@Description?3?5Ground?5Weapons?6Enab@ 100716c4     dllmain.obj
 0002:00002708       ??_C@_0CK@BHJDDPLF@Description?3?5Weapons?6Enable?5Weap@ 10071708     dllmain.obj
 0002:0000273c       ??_C@_0CM@LCGKFDDM@Description?3?5Vehicles?6Enable?5Veh@ 1007173c     dllmain.obj
 0002:00002770       ??_C@_0DH@FJMKIFOL@Description?3?5EURO?5Soldiers?6Enabl@ 10071770     dllmain.obj
 0002:000027b4       ??_C@_0DE@FPOMLEPD@Description?3?5MEC?5Soldiers?6Enable@ 100717b4     dllmain.obj
 0002:000027f4       ??_C@_0DI@BNFNEBME@Description?3?5CHINA?5Soldiers?6Enab@ 100717f4     dllmain.obj
 0002:00002838       ??_C@_0DG@DMLNHEPA@Description?3?5USMC?5Soldiers?6Enabl@ 10071838     dllmain.obj
 0002:00002878       ??_C@_0P@CGOLBDGI@Ground?5Weapons?$AA@ 10071878     dllmain.obj
 0002:0000288c       ??_C@_0O@HDIMJBND@EURO?5Soldiers?$AA@ 1007188c     dllmain.obj
 0002:0000289c       ??_C@_0N@PEMHNEAJ@MEC?5Soldiers?$AA@ 1007189c     dllmain.obj
 0002:000028ac       ??_C@_0P@GMEBBOPG@CHINA?5Soldiers?$AA@ 100718ac     dllmain.obj
 0002:000028c0       ??_C@_0O@MBENJCCI@USMC?5Soldiers?$AA@ 100718c0     dllmain.obj
 0002:000028d0       ??_C@_0DG@ILGMKJGF@Description?3?5Ping?5Correction?6Ena@ 100718d0     dllmain.obj
 0002:00002910       ??_C@_0DD@BPFEIJIH@Description?3?5Free?9Style?6Go?5Free?9@ 10071910     dllmain.obj
 0002:00002950       ??_C@_0DJ@JHKGADIM@Description?3?5Aim?5at?5Vehicles?6Aim@ 10071950     dllmain.obj
 0002:00002994       ??_C@_0DD@NMFHFCGO@Description?3?5Draw?5Aim?5FOV?6Draws?5@ 10071994     dllmain.obj
 0002:000029d4       ??_C@_0DN@FLKJBAHG@Description?3?5Limit?5Aim?5Angle?6Lim@ 100719d4     dllmain.obj
 0002:00002a20       ??_C@_0DG@LGDINJNE@Description?3?5Autoshoot?6Autoshoot@ 10071a20     dllmain.obj
 0002:00002a60       ??_C@_0DJ@GOENPJGF@Description?3?5No?5Shake?6Disables?5N@ 10071a60     dllmain.obj
 0002:00002aa4       ??_C@_0DF@POPHAEPC@Description?3?5No?5Spread?6Enables?5N@ 10071aa4     dllmain.obj
 0002:00002ae4       ??_C@_0DL@MDBOIGMG@Description?3?5Aimbot?6Enables?5Aimb@ 10071ae4     dllmain.obj
 0002:00002b2c       ??_C@_0L@LBJEIEJE@Free?9Style?$AA@ 10071b2c     dllmain.obj
 0002:00002b3c       ??_C@_0BA@HGJLJLOH@Aim?5at?5Vehicles?$AA@ 10071b3c     dllmain.obj
 0002:00002b50       ??_C@_0N@OFBKMHJK@Draw?5Aim?5FOV?$AA@ 10071b50     dllmain.obj
 0002:00002b60       ??_C@_0BA@KFJOHMOC@Limit?5Aim?5Angle?$AA@ 10071b60     dllmain.obj
 0002:00002b74       ??_C@_08DFBKNFNP@No?5Shake?$AA@ 10071b74     dllmain.obj
 0002:00002b80       ??_C@_09DINLMJHI@No?5Spread?$AA@ 10071b80     dllmain.obj
 0002:00002b8c       ??_C@_0CN@HHNOLMDE@Description?3?5No?5Hand?6Removes?5Pla@ 10071b8c     dllmain.obj
 0002:00002bc4       ??_C@_0CI@KOBLEBGA@Description?3?5Draw?5FPS?6Enables?5Dr@ 10071bc4     dllmain.obj
 0002:00002bf4       ??_C@_0CN@FCEHGEEM@Description?3?5No?5TV?5Static?6Remove@ 10071bf4     dllmain.obj
 0002:00002c2c       ??_C@_0CB@KHEPJJOP@Description?3?5No?5Sky?6Removes?5Sky?4@ 10071c2c     dllmain.obj
 0002:00002c54       ??_C@_0CB@IEKCGHM@Description?3?5No?5Fog?6Removes?5Fog?4@ 10071c54     dllmain.obj
 0002:00002c80       ??_C@_0EC@NOICPCAG@Description?3?5Aim?5Warnings?6Draws?5@ 10071c80     dllmain.obj
 0002:00002cd0       ??_C@_0DL@DHDNJPNF@Description?3?5Enemy?5Nearby?6Displa@ 10071cd0     dllmain.obj
 0002:00002d18       ??_C@_0DB@IOCLBMHE@Description?3?5Unlock?5Weapons?6Unlo@ 10071d18     dllmain.obj
 0002:00002d58       ??_C@_0EP@BNEFJCJG@Description?3?5Speedhack?6Enables?5V@ 10071d58     dllmain.obj
 0002:00002db8       ??_C@_0CH@HGMFCLBE@Description?3?5Crosshair?6Draw?5Cros@ 10071db8     dllmain.obj
 0002:00002de8       ??_C@_0CF@EKNFKNAN@Description?3?5Minimap?6Enable?5Mini@ 10071de8     dllmain.obj
 0002:00002e14       ??_C@_08MNIPFNFN@Draw?5FPS?$AA@ 10071e14     dllmain.obj
 0002:00002e20       ??_C@_0N@OICMDJFA@No?5TV?5Static?$AA@ 10071e20     dllmain.obj
 0002:00002e30       ??_C@_0N@LEFMDOAL@Aim?5Warnings?$AA@ 10071e30     dllmain.obj
 0002:00002e40       ??_C@_0N@KNGBPNGH@Enemy?5Nearby?$AA@ 10071e40     dllmain.obj
 0002:00002e50       ??_C@_0DG@BNDGDECN@Description?3?5Auto?9Flares?6Automat@ 10071e50     dllmain.obj
 0002:00002e90       ??_C@_0DB@GIKDFIEI@Description?3?5DangerWarning?6Enabl@ 10071e90     dllmain.obj
 0002:00002ecc       ??_C@_0CJ@OMHGHIJE@Description?3?5ObjectESP?6Enable?5Ob@ 10071ecc     dllmain.obj
 0002:00002f00       ??_C@_0CH@NMNEILD@Description?3?5Wallhack?6Enable?5Wal@ 10071f00     dllmain.obj
 0002:00002f30       ??_C@_0DB@NNEMNHGP@Description?3?5ASUS?5Wallhack?6Enabl@ 10071f30     dllmain.obj
 0002:00002f6c       ??_C@_0DL@GGFJEMO@Description?3?5Radar?$CGBridge?5Icons?6@ 10071f6c     dllmain.obj
 0002:00002fb4       ??_C@_0DI@EALFPNGP@Description?3?5Enemy?5Mines?5Icon?6En@ 10071fb4     dllmain.obj
 0002:00002ff8       ??_C@_0CD@PBFBEDLJ@Description?3?53D?5MAP?6Enable?53D?5MA@ 10071ff8     dllmain.obj
 0002:00003024       ??_C@_0CJ@BODEBGKN@Description?3?5No?5Overlay?6Removes?5@ 10072024     dllmain.obj
 0002:00003058       ??_C@_0DD@NMJJFMLK@Description?3?5View?5Distance?6Enabl@ 10072058     dllmain.obj
 0002:00003098       ??_C@_06MINMCHD@3D?5MAP?$AA@ 10072098     dllmain.obj
 0002:000030a0       ??_C@_0DF@IONEJFNH@Description?3Aim?5Bone?6Select?5Aim?5@ 100720a0     dllmain.obj
 0002:000030e0       ??_C@_0DJ@BOFGHDPB@Description?3Aim?5Angle?6Adjust?5Aim@ 100720e0     dllmain.obj
 0002:00003128       ??_C@_0EA@CEKLFHIF@Description?3Aim?5Distance?6Adjust?5@ 10072128     dllmain.obj
 0002:00003178       ??_C@_0EA@CJCPJAAG@Description?3ESP?5Distance?6Adjust?5@ 10072178     dllmain.obj
 0002:000031c8       __real@3fa99999a0000000    100721c8     dllmain.obj
 0002:000031d8       ??_C@_0ED@JAJOBIFO@Description?3Aim?5Prediction?6Adjus@ 100721d8     dllmain.obj
 0002:00003228       ??_C@_08OJMDPKCC@Aim?5Bone?$AA@ 10072228     dllmain.obj
 0002:00003234       ??_C@_09ECODCOH@Aim?5Angle?$AA@ 10072234     dllmain.obj
 0002:00003240       ??_C@_06GBAJJDGD@?$FL?$CF?41f?$FN?$AA@ 10072240     dllmain.obj
 0002:00003248       ??_C@_0N@NNCPCHIJ@Aim?5Distance?$AA@ 10072248     dllmain.obj
 0002:00003258       ??_C@_0N@HGJFGB@ESP?5Distance?$AA@ 10072258     dllmain.obj
 0002:00003268       ??_C@_07MCMENGEI@?$FL?$CF?40fm?$FN?$AA@ 10072268     dllmain.obj
 0002:00003274       ??_C@_0P@ICNJOPGH@Aim?5Prediction?$AA@ 10072274     dllmain.obj
 0002:00003288       ??_C@_06HDLMDMIN@?$FL?$CF?42f?$FN?$AA@ 10072288     dllmain.obj
 0002:00003290       ??_C@_0BP@JFDGDEGC@Description?3?5Extras2?5Features?4?$AA@ 10072290     dllmain.obj
 0002:000032b8       ??_C@_0BN@IJHHDCMA@Description?3?5Extra?5Features?4?$AA@ 100722b8     dllmain.obj
 0002:000032dc       ??_C@_0BO@DHIMKCDE@Description?3?5Aimbot?5Features?4?$AA@ 100722dc     dllmain.obj
 0002:00003300       ??_C@_0BM@IJMAIPCJ@Description?3?5Cham?5Features?4?$AA@ 10072300     dllmain.obj
 0002:00003324       ??_C@_0BM@OBFJGPCH@Description?3?5Team?5Features?4?$AA@ 10072324     dllmain.obj
 0002:00003348       ??_C@_0BL@DAHFBIGF@Description?3?5ESP?5Features?4?$AA@ 10072348     dllmain.obj
 0002:00003368       ??_C@_07CFCDLGGH@Customs?$AA@ 10072368     dllmain.obj
 0002:00003374       ??_C@_07PNLJMDF@Extras2?$AA@ 10072374     dllmain.obj
 0002:00003380       ??_C@_0DM@MMCEHJHK@Description?3?5TV?5Infantry?5Aim?6TV?5@ 10072380     dllmain.obj
 0002:000033c8       ??_C@_0BA@INEJMCHP@TV?5Infantry?5Aim?$AA@ 100723c8     dllmain.obj
 0002:000033dc       ??_C@_0CI@BCDCELHL@ps?41?41?6def?5c0?0?5?$CFf?0?5?$CFf?0?5?$CFf?0?5?$CFf?6mo@ 100723dc     dllmain.obj
 0002:00003410       __real@4082c00000000000    10072410     dllmain.obj
 0002:00003420       __real@4089000000000000    10072420     dllmain.obj
 0002:0000342c       __real@44000000            1007242c     dllmain.obj
 0002:00003430       __real@4072c00000000000    10072430     dllmain.obj
 0002:00003440       __real@4079000000000000    10072440     dllmain.obj
 0002:00003450       __real@3ee4f8b588e368f1    10072450     dllmain.obj
 0002:00003460       __real@3f50624dd2f1a9fc    10072460     dllmain.obj
 0002:00003470       ??_7?$basic_streambuf@DU?$char_traits@D@std@@@std@@6B@ 10072470     dllmain.obj
 0002:000034b8       ??_7?$basic_stringbuf@DU?$char_traits@D@std@@V?$allocator@D@2@@std@@6B@ 100724b8     dllmain.obj
 0002:000034fc       ??_C@_0BM@EOIFABAJ@?$CFs?5is?5aiming?5at?5you?5?$CF?40f?5?$CF?$CF?$AA@ 100724fc     dllmain.obj
 0002:00003520       __real@408f380000000000    10072520     dllmain.obj
 0002:00003530       __real@404e000000000000    10072530     dllmain.obj
 0002:0000353c       __real@4479c000            1007253c     dllmain.obj
 0002:00003544       ??_7?$basic_ostringstream@DU?$char_traits@D@std@@V?$allocator@D@2@@std@@6B@ 10072544     dllmain.obj
 0002:00003550       ??_7?$basic_filebuf@DU?$char_traits@D@std@@@std@@6B@ 10072550     dllmain.obj
 0002:00003598       ??_7logic_error@std@@6B@   10072598     dllmain.obj
 0002:000035a8       ??_7runtime_error@std@@6B@ 100725a8     dllmain.obj
 0002:000035b8       ??_7length_error@std@@6B@  100725b8     dllmain.obj
 0002:000035c8       ??_7out_of_range@std@@6B@  100725c8     dllmain.obj
 0002:000035d8       ??_7failure@ios_base@std@@6B@ 100725d8     dllmain.obj
 0002:000035e4       ??_C@_0BM@PAPJHAGI@invalid?5map?1set?$DMT?$DO?5iterator?$AA@ 100725e4     dllmain.obj
 0002:00003608       ??_C@_0BE@JONHPENG@map?1set?$DMT?$DO?5too?5long?$AA@ 10072608     dllmain.obj
 0002:00003620       ??_C@_0BD@OLBABOEK@vector?$DMT?$DO?5too?5long?$AA@ 10072620     dllmain.obj
 0002:00003638       ??_C@_0BA@ELKIONDK@bad?5locale?5name?$AA@ 10072638     dllmain.obj
 0002:00003650       ??_7?$ctype@D@std@@6B@     10072650     dllmain.obj
 0002:00003688       ??_C@_01GFHCPBMG@C?$AA@    10072688     dllmain.obj
 0002:0000368c       ??_C@_0BF@OOHOMBOF@ios_base?3?3eofbit?5set?$AA@ 1007268c     dllmain.obj
 0002:000036a8       ??_C@_0BG@FMKFHCIL@ios_base?3?3failbit?5set?$AA@ 100726a8     dllmain.obj
 0002:000036c4       ??_C@_0BF@PHHKMMFD@ios_base?3?3badbit?5set?$AA@ 100726c4     dllmain.obj
 0002:000036e0       ??_C@_05EJJKHDCK@ENEMY?$AA@ 100726e0     dllmain.obj
 0002:000036e8       ??_C@_06BDDGHBMC@FRIEND?$AA@ 100726e8     dllmain.obj
 0002:000036f0       ??_C@_07LIAEIFCI@?$FL?$CF?42fm?$FN?$AA@ 100726f0     dllmain.obj
 0002:00003700       __real@407f400000000000    10072700     dllmain.obj
 0002:00003710       __real@4069000000000000    10072710     dllmain.obj
 0002:0000371c       ??_C@_0L@FJHFMAFD@HS?9Missile?$AA@ 1007271c     dllmain.obj
 0002:0000372c       ??_C@_04CPBIAAIG@sa19?$AA@ 1007272c     dllmain.obj
 0002:00003734       ??_C@_0N@DAENIFIC@C4?9Explosive?$AA@ 10072734     dllmain.obj
 0002:00003744       ??_C@_02PBAFKAGD@c4?$AA@   10072744     dllmain.obj
 0002:00003748       ??_C@_05HJNKINKG@aa11_?$AA@ 10072748     dllmain.obj
 0002:00003750       ??_C@_06PBAECEHN@aim9m_?$AA@ 10072750     dllmain.obj
 0002:00003758       ??_C@_0L@MAOEOFKP@AT?9Missile?$AA@ 10072758     dllmain.obj
 0002:00003768       ??_C@_04BFPPDIOJ@eryx?$AA@ 10072768     dllmain.obj
 0002:00003770       ??_C@_07KPMMGEBA@AT?9Mine?$AA@ 10072770     dllmain.obj
 0002:0000377c       ??_C@_07BOCMLMBE@at_mine?$AA@ 1007277c     dllmain.obj
 0002:00003788       ??_C@_06EBGCPDFN@at_pre?$AA@ 10072788     dllmain.obj
 0002:00003790       ??_C@_04DGCFLKMG@igla?$AA@ 10072790     dllmain.obj
 0002:00003798       ??_C@_0O@EOEHJGHE@GuidedMissile?$AA@ 10072798     dllmain.obj
 0002:000037a8       ??_C@_07ODLAGMJF@missile?$AA@ 100727a8     dllmain.obj
 0002:000037b4       ??_C@_09CNNJKHBC@TVMissile?$AA@ 100727b4     dllmain.obj
 0002:000037c0       ??_C@_02CKCDDIBB@tv?$AA@   100727c0     dllmain.obj
 0002:000037c4       ??_C@_08DFFJANEK@Claymore?$AA@ 100727c4     dllmain.obj
 0002:000037d0       ??_C@_0L@IHAJEDLA@_claymore_?$AA@ 100727d0     dllmain.obj
 0002:000037e0       ??_C@_0M@KDEOPECF@HandGernade?$AA@ 100727e0     dllmain.obj
 0002:000037f0       ??_C@_05BLAAECHB@_m67_?$AA@ 100727f0     dllmain.obj
 0002:000037f8       ??_C@_08EPJLHIJG@bad?5cast?$AA@ 100727f8     dllmain.obj
 0002:00003808       ??_7?$num_put@DV?$ostreambuf_iterator@DU?$char_traits@D@std@@@std@@@std@@6B@ 10072808     dllmain.obj
 0002:00003834       ??_C@_05LAPONLG@false?$AA@ 10072834     dllmain.obj
 0002:00003840       ??_7?$codecvt@DDH@std@@6B@ 10072840     dllmain.obj
 0002:0000386c       ??_7?$numpunct@D@std@@6B@  1007286c     dllmain.obj
 0002:00003890       ??_7?$basic_ofstream@DU?$char_traits@D@std@@@std@@6B@ 10072890     dllmain.obj
 0002:00003898       __real@3f490fdb            10072898     dllmain.obj
 0002:0000389c       __real@40490fdb            1007289c     dllmain.obj
 0002:000038a0       __real@400921fb60000000    100728a0     dllmain.obj
 0002:000038ac       __real@43340000            100728ac     dllmain.obj
 0002:000038b0       __real@40a00000            100728b0     dllmain.obj
 0002:000038b4       ??_8?$basic_ostream@DU?$char_traits@D@std@@@std@@7B@ 100728b4     dllmain.obj
 0002:000038c0       ??_C@_01KGKMHCOC@e?$AA@    100728c0     dllmain.obj
 0002:000038c4       ??_C@_01DDCIFGEA@E?$AA@    100728c4     dllmain.obj
 0002:000038c8       ??_8?$basic_ostringstream@DU?$char_traits@D@std@@V?$allocator@D@2@@std@@7B@ 100728c8     dllmain.obj
 0002:000038d4       ??_8?$basic_ofstream@DU?$char_traits@D@std@@@std@@7B@ 100728d4     dllmain.obj
 0002:000038e0       ??_C@_02EAOCLKAK@ld?$AA@   100728e0     dllmain.obj
 0002:000038e4       ??_C@_02BDDLJJBK@lu?$AA@   100728e4     dllmain.obj
 0002:000038e8       ??_C@_02HIKPPMOK@Ld?$AA@   100728e8     dllmain.obj
 0002:000038ec       ??_C@_02CLHGNPPK@Lu?$AA@   100728ec     dllmain.obj
 0002:000038f0       __real@38aa95a5b7f87a0f    100728f0     dllmain.obj
 0002:00003900       __real@4202a05f20000000    10072900     dllmain.obj
 0002:00003910       __real@4733426172c74d82    10072910     dllmain.obj
 0002:0000391c       ??_C@_02BBAHNLBA@?$CFp?$AA@ 1007291c     dllmain.obj
 0002:00003920       ??_C@_0CF@FILHNDJD@Unknown?5Command?5?9?5Press?5ESC?5to?5C@ 10072920     dllmain.obj
 0002:0000394c       ??_C@_0CG@FCFDDHHP@Use?5Up?1Down?5Arrows?5to?5Browse?5Com@ 1007294c     dllmain.obj
 0002:0000397c       ??_C@_04PCJFHION@help?$AA@ 1007297c     dllmain.obj
 0002:00003984       ??_C@_0BE@JOFMIJFN@Aimbone?5Set?5to?5Feet?$AA@ 10072984     dllmain.obj
 0002:0000399c       ??_C@_0BE@JICJNDFF@Aimbone?5Set?5to?5Legs?$AA@ 1007299c     dllmain.obj
 0002:000039b4       ??_C@_0BG@HLHCFPFF@Aimbone?5Set?5to?5Pelvis?$AA@ 100729b4     dllmain.obj
 0002:000039d0       ??_C@_0BH@LBEOPJLA@Aimbone?5Set?5to?5Stomach?$AA@ 100729d0     dllmain.obj
 0002:000039ec       ??_C@_0BF@PDAFIOLF@Aimbone?5Set?5to?5Chest?$AA@ 100729ec     dllmain.obj
 0002:00003a08       ??_C@_0BE@GHPLLALA@Aimbone?5Set?5to?5Neck?$AA@ 10072a08     dllmain.obj
 0002:00003a20       ??_C@_0BE@GMKHINLB@Aimbone?5Set?5to?5Head?$AA@ 10072a20     dllmain.obj
 0002:00003a38       ??_C@_0O@EKHLHLBE@Aimbone?5Reset?$AA@ 10072a38     dllmain.obj
 0002:00003a48       ??_C@_0BI@GJECFEJJ@Aimbot?5Prediction?5Reset?$AA@ 10072a48     dllmain.obj
 0002:00003a64       ??_C@_00CNPNBAHC@?$AA@     10072a64     dllmain.obj
 0002:00003a68       ??_C@_0BA@KCJEIHGG@Shaders?5Created?$AA@ 10072a68     dllmain.obj
 0002:00003a7c       __real@424c0000            10072a7c     dllmain.obj
 0002:00003a80       __real@43000000            10072a80     dllmain.obj
 0002:00003a84       __real@437f0000            10072a84     dllmain.obj
 0002:00003a88       ??_C@_0BB@CMPJKNOF@Textures?5Created?$AA@ 10072a88     dllmain.obj
 0002:00003a9c       ??_C@_0BI@OJJCEMIO@Create?5Required?5Objects?$AA@ 10072a9c     dllmain.obj
 0002:00003ab8       ??_C@_0BI@PAMNMEGE@?$DN?$DN?$DN?$DN?$DN?$DN?$DN?$DN?$DN?$DN?$DN?$DN?$DN?$DN?$DN?$DN?$DN?$DN?$DN?$DN?$DN?$DN?$DN?$AA@ 10072ab8     dllmain.obj
 0002:00003ad4       ??_C@_0BH@MCCNJFJE@Watermark?5Font?5Created?$AA@ 10072ad4     dllmain.obj
 0002:00003af0       ??_C@_03FAAAOPJM@red?$AA@  10072af0     dllmain.obj
 0002:00003af4       ??_C@_0BC@EPEKAKD@Menu?5Font?5Created?$AA@ 10072af4     dllmain.obj
 0002:00003b0c       ??_C@_0BD@GJOHPCJO@Alert?5Font?5Created?$AA@ 10072b0c     dllmain.obj
 0002:00003b24       ??_C@_0O@DIFPFNLN@Lines?5Created?$AA@ 10072b24     dllmain.obj
 0002:00003b34       ??_C@_0N@MAHIEMOF@Successful?3?5?$AA@ 10072b34     dllmain.obj
 0002:00003b44       ??_C@_0BD@CJOBMJJF@Action?5Buffer?5Hook?$AA@ 10072b44     dllmain.obj
 0002:00003b5c       ??_C@_0BD@EBKCEOLJ@?$DN?$DN?$DN?$DN?$DN?$DN?$DN?$DN?$DN?$DN?$DN?$DN?$DN?$DN?$DN?$DN?$DN?$DN?$AA@ 10072b5c     dllmain.obj
 0002:00003b74       ??_C@_0BF@EPNFCBMM@IsPlayerConnected?5?9?5?$AA@ 10072b74     dllmain.obj
 0002:00003b90       __real@3f4cccce            10072b90     dllmain.obj
 0002:00003b94       __real@3f3fbfc0            10072b94     dllmain.obj
 0002:00003b98       __real@3f48c8ca            10072b98     dllmain.obj
 0002:00003ba0       __real@4046800000000000    10072ba0     dllmain.obj
 0002:00003bac       __real@3f008081            10072bac     dllmain.obj
 0002:00003bb0       ??_C@_0L@LGHGJOFB@?$CFs?5is?5?$CF?41f?$AA@ 10072bb0     dllmain.obj
 0002:00003bc0       __real@404b800000000000    10072bc0     dllmain.obj
 0002:00003bcc       ??_C@_05PICHHLJJ@Prone?$AA@ 10072bcc     dllmain.obj
 0002:00003bd4       ??_C@_09JMPGPFJ@Crouching?$AA@ 10072bd4     dllmain.obj
 0002:00003be0       ??_C@_08CHGFFCLN@Standing?$AA@ 10072be0     dllmain.obj
 0002:00003bec       ??_C@_09POODIMLO@Anti?9Tank?$AA@ 10072bec     dllmain.obj
 0002:00003bf8       ??_C@_07HCLHCBKI@Support?$AA@ 10072bf8     dllmain.obj
 0002:00003c04       ??_C@_0P@HJNMPEMG@Special?5Forces?$AA@ 10072c04     dllmain.obj
 0002:00003c18       ??_C@_06NJLFPEAG@?$FL?$CF?40f?$FN?$AA@ 10072c18     dllmain.obj
 0002:00003c20       ??_C@_06DBOFCAF@?$FL?5?$CFs?5?$FN?$AA@ 10072c20     dllmain.obj
 0002:00003c28       ??_C@_08EBLILKKK@Jet?5Mode?$AA@ 10072c28     dllmain.obj
 0002:00003c34       ??_C@_07JIGKIDKC@TV?5Mode?$AA@ 10072c34     dllmain.obj
 0002:00003c40       ??_C@_0N@NIDCPLO@Default?5Mode?$AA@ 10072c40     dllmain.obj
 0002:00003c50       ??_C@_0BM@IBGMPMMP@?9?$FN?5RaX?5Battlefield?52?5HaX?5?$FL?9?$AA@ 10072c50     dllmain.obj
 0002:00003c74       ??_C@_0BD@PPDEJDJC@GetPlayerView?5Hook?$AA@ 10072c74     dllmain.obj
 0002:00003c8c       ??_C@_0BD@PDMHIBPE@EndScene?5pDevice?3?5?$AA@ 10072c8c     dllmain.obj
 0002:00003ca4       ??_C@_0BJ@FHHEHEO@CRenderer?9?$DOGame_Device?3?5?$AA@ 10072ca4     dllmain.obj
 0002:00003cc4       ??_C@_0BF@DMLLFNNO@DX3D?5Device?5Pointers?$AA@ 10072cc4     dllmain.obj
 0002:00003ce0       ??_C@_0BF@OCDIAGLJ@?$DN?$DN?$DN?$DN?$DN?$DN?$DN?$DN?$DN?$DN?$DN?$DN?$DN?$DN?$DN?$DN?$DN?$DN?$DN?$DN?$AA@ 10072ce0     dllmain.obj
 0002:00003cfc       ??_C@_0BN@LFIIMMAN@Begin?5Function?5?9?$DO?5bInitFonts?$AA@ 10072cfc     dllmain.obj
 0002:00003d20       ??_C@_0BM@JMPONMDH@Begin?5Function?5?9?$DO?5InitLines?$AA@ 10072d20     dllmain.obj
 0002:00003d44       ??_C@_0BM@EEOFLHJJ@Begin?5Function?5?9?$DO?5InitStuff?$AA@ 10072d44     dllmain.obj
 0002:00003d68       ??_C@_0BP@KHHMCFEK@DrawIndexedPrimitive?5pDevice?3?5?$AA@ 10072d68     dllmain.obj
 0002:00003d90       ??_C@_0BN@BJNIEGNO@CRenderer?9?$DODirect3D_Device?3?5?$AA@ 10072d90     dllmain.obj
 0002:00003db4       ??_C@_0BN@OLLGCMIE@Jump?5Squads?5Key?5Pressed?5?$CIF8?$CJ?$AA@ 10072db4     dllmain.obj
 0002:00003dd8       ??_C@_0CE@FBKJBCAC@Force?5Squad?5Leader?5Key?5Pressed?5?$CI@ 10072dd8     dllmain.obj
 0002:00003e04       ??_C@_0CB@IGDNNEHK@Force?5Commander?5Key?5Pressed?5?$CIF6?$CJ@ 10072e04     dllmain.obj
 0002:00003e2c       ??_C@_0BL@CPBMBOAK@Team?5Swap?5Key?5Pressed?5?$CIF5?$CJ?$AA@ 10072e2c     dllmain.obj
 0002:00003e4c       ??_C@_0BI@FELOLLCB@SpeedModifier?5Increased?$AA@ 10072e4c     dllmain.obj
 0002:00003e68       __real@416312d000000000    10072e68     dllmain.obj
 0002:00003e74       ??_C@_0BI@CDBFKOEM@SpeedModifier?5Decreased?$AA@ 10072e74     dllmain.obj
 0002:00003e90       ??_C@_0BH@JKPCDEON@DrawIndexedPrimitive?3?5?$AA@ 10072e90     dllmain.obj
 0002:00003eac       ??_C@_0L@FCIKKJJI@EndScene?3?5?$AA@ 10072eac     dllmain.obj
 0002:00003ebc       ??_C@_0BK@KJBAIBNL@pdwNewGameDevice?5Pointers?$AA@ 10072ebc     dllmain.obj
 0002:00003edc       ??_C@_0BK@NLMDGGLK@?$DN?$DN?$DN?$DN?$DN?$DN?$DN?$DN?$DN?$DN?$DN?$DN?$DN?$DN?$DN?$DN?$DN?$DN?$DN?$DN?$DN?$DN?$DN?$DN?$DN?$AA@ 10072edc     dllmain.obj
 0002:00003efc       ??_C@_0BD@PDIHCPE@pdwNewGameDevice?3?5?$AA@ 10072efc     dllmain.obj
 0002:00003f14       ??_C@_0BC@FKNEGACC@pDirect3DDevice?3?5?$AA@ 10072f14     dllmain.obj
 0002:00003f2c       ??_C@_0O@MOIIJPPN@pGameDevice?3?5?$AA@ 10072f2c     dllmain.obj
 0002:00003f3c       ??_C@_0N@PDGALHOH@Game?5Devices?$AA@ 10072f3c     dllmain.obj
 0002:00003f4c       ??_C@_0N@OJOGNPKL@?$DN?$DN?$DN?$DN?$DN?$DN?$DN?$DN?$DN?$DN?$DN?$DN?$AA@ 10072f4c     dllmain.obj
 0002:00003f5c       ??_C@_09BIKBLKBB@Present?3?5?$AA@ 10072f5c     dllmain.obj
 0002:00003f68       ??_C@_0O@LGMIODIL@DrawOverlay?3?5?$AA@ 10072f68     dllmain.obj
 0002:00003f78       ??_C@_0BD@EMMFBIAL@gRenderer?5Pointers?$AA@ 10072f78     dllmain.obj
 0002:00003f90       ??_C@_0BC@MFKAJDEH@MaterialManager?3?5?$AA@ 10072f90     dllmain.obj
 0002:00003fa8       ??_C@_0BA@LECBBMIG@MaterialManager?$AA@ 10072fa8     dllmain.obj
 0002:00003fbc       ??_C@_0BK@DNOKBBPI@PostProductionFramework?3?5?$AA@ 10072fbc     dllmain.obj
 0002:00003fdc       ??_C@_0BI@FLIOHALK@PostProductionFrameWork?$AA@ 10072fdc     dllmain.obj
 0002:00003ff8       ??_C@_0BC@BBHBKDLP@DebugLineDrawer?3?5?$AA@ 10072ff8     dllmain.obj
 0002:00004010       ??_C@_0BA@EBLINJH@DebugLineDrawer?$AA@ 10073010     dllmain.obj
 0002:00004024       ??_C@_0BC@FEGGDNKK@DebugTextWriter?3?5?$AA@ 10073024     dllmain.obj
 0002:0000403c       ??_C@_0BA@BBCKCAKF@DebugTextWriter?$AA@ 1007303c     dllmain.obj
 0002:00004050       ??_C@_0BB@JAIOOGOB@PhysicsManager?3?5?$AA@ 10073050     dllmain.obj
 0002:00004064       ??_C@_0BF@PGNNCCBB@BasicPhysicsSystem?3?5?$AA@ 10073064     dllmain.obj
 0002:00004080       ??_C@_0BD@KJOOMMIL@BasicPhysicsSystem?$AA@ 10073080     dllmain.obj
 0002:00004098       ??_C@_0N@LKHAOPOG@HudManager?3?5?$AA@ 10073098     dllmain.obj
 0002:000040a8       ??_C@_0L@BFANFFHC@HudManager?$AA@ 100730a8     dllmain.obj
 0002:000040b8       ??_C@_0BE@FIPDMHL@ControlMapManager?3?5?$AA@ 100730b8     dllmain.obj
 0002:000040d0       ??_C@_0BC@MIPKOBEO@ControlMapManager?$AA@ 100730d0     dllmain.obj
 0002:000040e8       ??_C@_0P@GKJEOGLB@InputManager?3?5?$AA@ 100730e8     dllmain.obj
 0002:000040fc       ??_C@_0N@LEOMGOGB@InputManager?$AA@ 100730fc     dllmain.obj
 0002:0000410c       ??_C@_0BF@BLMNBBOD@InputDeviceManager?3?5?$AA@ 1007310c     dllmain.obj
 0002:00004128       ??_C@_0BD@HOODBJCG@InputDeviceManager?$AA@ 10073128     dllmain.obj
 0002:00004140       ??_C@_0BA@PEPIHFGN@ObjectManager?3?5?$AA@ 10073140     dllmain.obj
 0002:00004154       ??_C@_0O@NPKOEECM@ObjectManager?$AA@ 10073154     dllmain.obj
 0002:00004164       ??_C@_0BA@BHELHPND@PlayerManager?3?5?$AA@ 10073164     dllmain.obj
 0002:00004178       ??_C@_0O@LOBEDLMJ@PlayerManager?$AA@ 10073178     dllmain.obj
 0002:00004188       ??_C@_0O@EHGNAHBB@MainConsole?3?5?$AA@ 10073188     dllmain.obj
 0002:00004198       ??_C@_0M@GOINPEDO@MainConsole?$AA@ 10073198     dllmain.obj
 0002:000041a8       ??_C@_0L@PAJMAKPD@Renderer?3?5?$AA@ 100731a8     dllmain.obj
 0002:000041b8       ??_C@_08FGEENEBP@Renderer?$AA@ 100731b8     dllmain.obj
 0002:000041c4       ??_C@_0BA@GMODAJEN@WorldToScreen?3?5?$AA@ 100731c4     dllmain.obj
 0002:000041d8       ??_C@_0CC@HPCPIMGF@U?$IL?l?$IB?l?$AA?$AA?$AA?$AA?$IL?$AN?$AA?$AA?$AA?$AA?$IL?$ABVW?$PPP?$AA?$IL?p?$IL?$BG?$IL?N?$PPR?$AA?Y@ 100731d8     dllmain.obj
 0002:00004200       ??_C@_0CC@CAFPJEMP@xxxxx?$DP?$DP?$DP?$DPxx?$DP?$DP?$DP?$DPxxxxxx?$DPxxxxxxxx?$DPx@ 10073200     dllmain.obj
 0002:00004228       ??_C@_0BC@BKBDLJNC@Profile?5Manager?3?5?$AA@ 10073228     dllmain.obj
 0002:00004240       ??_C@_0P@EJPPFMFG@ProfileManager?$AA@ 10073240     dllmain.obj
 0002:00004254       ??_C@_0P@PJCKNHKN@Class?5Pointers?$AA@ 10073254     dllmain.obj
 0002:00004268       ??_C@_0BA@PHEJGMFB@BF2?4exe?5Found?3?5?$AA@ 10073268     dllmain.obj
 0002:0000427c       ??_C@_07KPGNDDLN@BF2?4exe?$AA@ 1007327c     dllmain.obj
 0002:00004288       ??_C@_0BB@LFBKOAPO@d3d9?4dll?5Found?3?5?$AA@ 10073288     dllmain.obj
 0002:0000429c       ??_C@_08NIHLGCK@d3d9?4dll?$AA@ 1007329c     dllmain.obj
 0002:000042a8       ??_C@_0BE@OEDIEHOJ@RendDx9?4dll?5Found?3?5?$AA@ 100732a8     dllmain.obj
 0002:000042c0       ??_C@_0M@GHOAPJGO@RendDX9?4dll?$AA@ 100732c0     dllmain.obj
 0002:000042d0       ??_C@_0BN@MKDHAACM@CurrentProcess?$CIhand?$CJ?5Found?3?5?$AA@ 100732d0     dllmain.obj
 0002:000042f4       ??_C@_0P@OLMJILBJ@Module?5Handles?$AA@ 100732f4     dllmain.obj
 0002:00004308       ??_C@_0P@BNMEHNPM@?$DN?$DN?$DN?$DN?$DN?$DN?$DN?$DN?$DN?$DN?$DN?$DN?$DN?$DN?$AA@ 10073308     dllmain.obj
 0002:0000431c       ??_C@_0BK@OFGNBHGL@DLL?5Detached?5Successfully?$AA@ 1007331c     dllmain.obj
 0002:0000433c       ??_C@_0BA@IJOKHBHG@Black?5PBSS?5Hook?$AA@ 1007333c     dllmain.obj
 0002:00004350       ??_C@_0BA@NOPODCPE@?$DN?$DN?$DN?$DN?$DN?$DN?$DN?$DN?$DN?$DN?$DN?$DN?$DN?$DN?$DN?$AA@ 10073350     dllmain.obj
 0002:00004364       ??_C@_0BJ@IELJFAKB@GetWindowThreadProcessId?$AA@ 10073364     dllmain.obj
 0002:00004384       ??_C@_0L@GMPLCCII@user32?4dll?$AA@ 10073384     dllmain.obj
 0002:00004394       ??_C@_0BK@HKNKHBNJ@DLL?5Attached?5Successfully?$AA@ 10073394     dllmain.obj
 0002:000043b4       ??_C@_0BO@HJHGBEKN@RaKS?5BF2?5Revive?5Framework?5Log?$AA@ 100733b4     dllmain.obj
 0002:000043d8       ??_C@_0BO@NCOIPEIL@?$DN?$DN?$DN?$DN?$DN?$DN?$DN?$DN?$DN?$DN?$DN?$DN?$DN?$DN?$DN?$DN?$DN?$DN?$DN?$DN?$DN?$DN?$DN?$DN?$DN?$DN?$DN?$DN?$DN?$AA@ 100733d8     dllmain.obj
 0002:000043fc       ??_C@_0BF@ECDLOPMF@?2RAKS?9BF2_FW?9LOG?4txt?$AA@ 100733fc     dllmain.obj
 0002:00004418       ??_C@_01MCMALHOG@a?$AA@    10073418     dllmain.obj
 0002:0000441c       ??_C@_01OJONOECF@b?$AA@    1007341c     dllmain.obj
 0002:00004420       ??_C@_01PAPGNFGE@c?$AA@    10073420     dllmain.obj
 0002:00004424       ??_C@_01LPLHEDKD@d?$AA@    10073424     dllmain.obj
 0002:00004428       ??_C@_01INIBCBCB@f?$AA@    10073428     dllmain.obj
 0002:0000442c       ??_C@_01JEJKBAGA@g?$AA@    1007342c     dllmain.obj
 0002:00004430       ??_C@_01BDACAMKP@h?$AA@    10073430     dllmain.obj
 0002:00004434       ??_C@_01KBJDNOO@i?$AA@     10073434     dllmain.obj
 0002:00004438       ??_C@_01CBDEGOCN@j?$AA@    10073438     dllmain.obj
 0002:0000443c       ??_C@_01DICPFPGM@k?$AA@    1007343c     dllmain.obj
 0002:00004440       ??_C@_01HHGOMJKL@l?$AA@    10073440     dllmain.obj
 0002:00004444       ??_C@_01GOHFPIOK@m?$AA@    10073444     dllmain.obj
 0002:00004448       ??_C@_01EFFIKLCJ@n?$AA@    10073448     dllmain.obj
 0002:0000444c       ??_C@_01FMEDJKGI@o?$AA@    1007344c     dllmain.obj
 0002:00004450       ??_C@_01JBBJJEPG@p?$AA@    10073450     dllmain.obj
 0002:00004454       ??_C@_01IIACKFLH@q?$AA@    10073454     dllmain.obj
 0002:00004458       ??_C@_01KDCPPGHE@r?$AA@    10073458     dllmain.obj
 0002:0000445c       ??_C@_01LKDEMHDF@s?$AA@    1007345c     dllmain.obj
 0002:00004460       ??_C@_01PFHFFBPC@t?$AA@    10073460     dllmain.obj
 0002:00004464       ??_C@_01OMGOGALD@u?$AA@    10073464     dllmain.obj
 0002:00004468       ??_C@_01MHEDDDHA@v?$AA@    10073468     dllmain.obj
 0002:0000446c       ??_C@_01NOFIACDB@w?$AA@    1007346c     dllmain.obj
 0002:00004470       ??_C@_01FJMABOPO@x?$AA@    10073470     dllmain.obj
 0002:00004474       ??_C@_01EANLCPLP@y?$AA@    10073474     dllmain.obj
 0002:00004478       ??_C@_01GLPGHMHM@z?$AA@    10073478     dllmain.obj
 0002:0000447c       ??_C@_01FHEEJDEE@A?$AA@    1007347c     dllmain.obj
 0002:00004480       ??_C@_01HMGJMAIH@B?$AA@    10073480     dllmain.obj
 0002:00004484       ??_C@_01CKDDGHAB@D?$AA@    10073484     dllmain.obj
 0002:00004488       ??_C@_01BIAFAFID@F?$AA@    10073488     dllmain.obj
 0002:0000448c       ??_C@_01BBODEMC@G?$AA@     1007348c     dllmain.obj
 0002:00004490       ??_C@_01IGIGCIAN@H?$AA@    10073490     dllmain.obj
 0002:00004494       ??_C@_01JPJNBJEM@I?$AA@    10073494     dllmain.obj
 0002:00004498       ??_C@_01LELAEKIP@J?$AA@    10073498     dllmain.obj
 0002:0000449c       ??_C@_01KNKLHLMO@K?$AA@    1007349c     dllmain.obj
 0002:000044a0       ??_C@_01OCOKONAJ@L?$AA@    100734a0     dllmain.obj
 0002:000044a4       ??_C@_01PLPBNMEI@M?$AA@    100734a4     dllmain.obj
 0002:000044a8       ??_C@_01NANMIPIL@N?$AA@    100734a8     dllmain.obj
 0002:000044ac       ??_C@_01MJMHLOMK@O?$AA@    100734ac     dllmain.obj
 0002:000044b0       ??_C@_01EJNLAFE@P?$AA@     100734b0     dllmain.obj
 0002:000044b4       ??_C@_01BNIGIBBF@Q?$AA@    100734b4     dllmain.obj
 0002:000044b8       ??_C@_01DGKLNCNG@R?$AA@    100734b8     dllmain.obj
 0002:000044bc       ??_C@_01CPLAODJH@S?$AA@    100734bc     dllmain.obj
 0002:000044c0       ??_C@_01GAPBHFFA@T?$AA@    100734c0     dllmain.obj
 0002:000044c4       ??_C@_01HJOKEEBB@U?$AA@    100734c4     dllmain.obj
 0002:000044c8       ??_C@_01FCMHBHNC@V?$AA@    100734c8     dllmain.obj
 0002:000044cc       ??_C@_01ELNMCGJD@W?$AA@    100734cc     dllmain.obj
 0002:000044d0       ??_C@_01NFFPALBN@Y?$AA@    100734d0     dllmain.obj
 0002:000044d4       ??_C@_01POHCFINO@Z?$AA@    100734d4     dllmain.obj
 0002:000044d8       ??_C@_01LFCBOECM@?4?$AA@   100734d8     dllmain.obj
 0002:000044dc       ??_C@_01CLKCMJKC@?5?$AA@   100734dc     dllmain.obj
 0002:000044e0       ??_C@_0O@FOBCAGDM@Aimbot?4Toggle?$AA@ 100734e0     dllmain.obj
 0002:000044f0       ??_C@_0BH@GNNGHJLE@Aimbot?4NoSpread?4Toggle?$AA@ 100734f0     dllmain.obj
 0002:0000450c       ??_C@_0BG@DLHPCLPC@Aimbot?4NoShake?4Toggle?$AA@ 1007350c     dllmain.obj
 0002:00004528       ??_C@_0BK@MPFJMLCD@Aimbot?4VisibleOnly?4Toggle?$AA@ 10073528     dllmain.obj
 0002:00004548       ??_C@_0BL@GHBNLLHN@Aimbot?4InfantryOnly?4Toggle?$AA@ 10073548     dllmain.obj
 0002:00004568       ??_C@_0BG@GKDMPFND@Aimbot?4DrawFOV?4Toggle?$AA@ 10073568     dllmain.obj
 0002:00004584       ??_C@_0BI@DNMFPKOD@Aimbot?4AutoShoot?4Toggle?$AA@ 10073584     dllmain.obj
 0002:000045a0       ??_C@_0BM@ELNMNBMI@Aimbot?4LimitAimAngle?4Toggle?$AA@ 100735a0     dllmain.obj
 0002:000045c4       ??_C@_0BJ@NFPJHNIJ@Aimbot?4AimAngle?4Increase?$AA@ 100735c4     dllmain.obj
 0002:000045e4       ??_C@_0BJ@HJNMIGII@Aimbot?4AimAngle?4Decrease?$AA@ 100735e4     dllmain.obj
 0002:00004604       ??_C@_0BI@ELHCFFB@Aimbot?4AimAngle?4Display?$AA@ 10073604     dllmain.obj
 0002:00004620       ??_C@_0BP@MMPJKNJK@Aimbot?4MaxAimDistance?4Increase?$AA@ 10073620     dllmain.obj
 0002:00004648       ??_C@_0BP@GANMFGJL@Aimbot?4MaxAimDistance?4Decrease?$AA@ 10073648     dllmain.obj
 0002:00004670       ??_C@_0BO@GIFBEHMH@Aimbot?4MaxAimDistance?4Display?$AA@ 10073670     dllmain.obj
 0002:00004694       ??_C@_0BL@ODBEAOFB@Aimbot?4Prediction?4Increase?$AA@ 10073694     dllmain.obj
 0002:000046b4       ??_C@_0BL@EPDBPFFA@Aimbot?4Prediction?4Decrease?$AA@ 100736b4     dllmain.obj
 0002:000046d4       ??_C@_0BK@OKIOALPL@Aimbot?4Prediction?4Display?$AA@ 100736d4     dllmain.obj
 0002:000046f4       ??_C@_0BI@CAFADNEN@Aimbot?4Prediction?4Reset?$AA@ 100736f4     dllmain.obj
 0002:00004710       ??_C@_0BB@JECPDKHE@Aimbone?4Increase?$AA@ 10073710     dllmain.obj
 0002:00004724       ??_C@_0BB@DIAKMBHF@Aimbone?4Decrease?$AA@ 10073724     dllmain.obj
 0002:00004738       ??_C@_0BA@NGIKLIPK@Aimbone?4Display?$AA@ 10073738     dllmain.obj
 0002:0000474c       ??_C@_0O@BKEEAAEJ@Aimbone?4Reset?$AA@ 1007374c     dllmain.obj
 0002:0000475c       ??_C@_0N@OFFFEIEN@Aimbone?4Head?$AA@ 1007375c     dllmain.obj
 0002:0000476c       ??_C@_0N@OOAJHFEM@Aimbone?4Neck?$AA@ 1007376c     dllmain.obj
 0002:0000477c       ??_C@_0O@EHIHMCEH@Aimbone?4Chest?$AA@ 1007377c     dllmain.obj
 0002:0000478c       ??_C@_0BA@OIKOMDLG@Aimbone?4Stomach?$AA@ 1007378c     dllmain.obj
 0002:000047a0       ??_C@_0P@CIHFEOCJ@Aimbone?4Pelvis?$AA@ 100737a0     dllmain.obj
 0002:000047b4       ??_C@_0N@BBNLBGKJ@Aimbone?4Legs?$AA@ 100737b4     dllmain.obj
 0002:000047c4       ??_C@_0N@BHKOEMKB@Aimbone?4Feet?$AA@ 100737c4     dllmain.obj
 0002:000047d4       ??_C@_0N@DFPGMPHF@ENEMY?5NEARBY?$AA@ 100737d4     dllmain.obj
 0002:000047e4       ??_C@_05NCPLBNAO@TVOff?$AA@ 100737e4     dllmain.obj
 0002:000047ec       ??_C@_0BG@DMOKGHAG@?4?2RAXBF2Framework?4ini?$AA@ 100737ec     dllmain.obj
 0002:0000480c       ??_7_Locimp@locale@std@@6B@ 1007380c     libcpmt:locale0.obj
 0002:00004810       ?_BADOFF@std@@3JB          10073810     libcpmt:ios.obj
 0002:00004818       ??_7invalid_argument@std@@6B@ 10073818     libcpmt:string.obj
 0002:00004820       ??_C@_0BA@JFNIOLAK@string?5too?5long?$AA@ 10073820     libcpmt:string.obj
 0002:00004830       ??_C@_0BI@CFPLBAOH@invalid?5string?5position?$AA@ 10073830     libcpmt:string.obj
 0002:00004848       ??_C@_0BI@ILCMCLF@invalid?5string?5argument?$AA@ 10073848     libcpmt:string.obj
 0002:00004860       ?ProcessDetach@NativeDll@<CrtImplementationDetails>@@0IB 10073860     libcpmt:fiopen.obj
 0002:00004864       ?ProcessAttach@NativeDll@<CrtImplementationDetails>@@0IB 10073864     libcpmt:fiopen.obj
 0002:00004868       ?ThreadAttach@NativeDll@<CrtImplementationDetails>@@0IB 10073868     libcpmt:fiopen.obj
 0002:0000486c       ?ThreadDetach@NativeDll@<CrtImplementationDetails>@@0IB 1007386c     libcpmt:fiopen.obj
 0002:00004870       ?ProcessVerifier@NativeDll@<CrtImplementationDetails>@@0IB 10073870     libcpmt:fiopen.obj
 0002:00004874       ??_C@_13BPINEIPE@?$AAr?$AA?$AA@ 10073874     libcpmt:fiopen.obj
 0002:000048b4       ??_C@_13CIFDLIMG@?$AAw?$AA?$AA@ 100738b4     libcpmt:fiopen.obj
 0002:000048b8       ??_C@_13FNCBLAIF@?$AAa?$AA?$AA@ 100738b8     libcpmt:fiopen.obj
 0002:000048bc       ??_C@_15JJPIMNBO@?$AAr?$AAb?$AA?$AA@ 100738bc     libcpmt:fiopen.obj
 0002:000048c4       ??_C@_15MJDFFMKN@?$AAw?$AAb?$AA?$AA@ 100738c4     libcpmt:fiopen.obj
 0002:000048cc       ??_C@_15BMLKLNCL@?$AAa?$AAb?$AA?$AA@ 100738cc     libcpmt:fiopen.obj
 0002:000048d4       ??_C@_15HPOENKKJ@?$AAr?$AA?$CL?$AA?$AA@ 100738d4     libcpmt:fiopen.obj
 0002:000048dc       ??_C@_15CPCJELBK@?$AAw?$AA?$CL?$AA?$AA@ 100738dc     libcpmt:fiopen.obj
 0002:000048e4       ??_C@_15PKKGKKJM@?$AAa?$AA?$CL?$AA?$AA@ 100738e4     libcpmt:fiopen.obj
 0002:000048ec       ??_C@_17IIOMHMAG@?$AAr?$AA?$CL?$AAb?$AA?$AA@ 100738ec     libcpmt:fiopen.obj
 0002:000048f4       ??_C@_17MAAMHCGC@?$AAw?$AA?$CL?$AAb?$AA?$AA@ 100738f4     libcpmt:fiopen.obj
 0002:000048fc       ??_C@_17HKNIEKMO@?$AAa?$AA?$CL?$AAb?$AA?$AA@ 100738fc     libcpmt:fiopen.obj
 0002:00004968       ?s_rbModRm@CDetourDis@@1QBEB 10073968     detours:disasm.obj
 0002:00004a68       ?s_rceCopyTable@CDetourDis@@1QBUCOPYENTRY@1@B 10073a68     detours:disasm.obj
 0002:00005270       ?s_rceCopyTable0F@CDetourDis@@1QBUCOPYENTRY@1@B 10074270     detours:disasm.obj
 0002:00005a7c       ??_7exception@std@@6B@     10074a7c     LIBCMT:stdexcpt.obj
 0002:00005a84       ??_C@_0BC@EOODALEL@Unknown?5exception?$AA@ 10074a84     LIBCMT:stdexcpt.obj
 0002:00005a9c       ??_7bad_cast@std@@6B@      10074a9c     LIBCMT:stdexcpt.obj
 0002:00005aa8       ??_7bad_typeid@std@@6B@    10074aa8     LIBCMT:stdexcpt.obj
 0002:00005ab4       ??_7__non_rtti_object@std@@6B@ 10074ab4     LIBCMT:stdexcpt.obj
 0002:00005ac0       ??_7type_info@@6B@         10074ac0     LIBCMT:typinfo.obj
 0002:00005ac4       __FPinit                   10074ac4     LIBCMT:fpinit.obj
 0002:00005ac8       __FPmtinit                 10074ac8     LIBCMT:fpinit.obj
 0002:00005acc       __FPmtterm                 10074acc     LIBCMT:fpinit.obj
 0002:00005b40       __pRawDllMain              10074b40     LIBCMT:dllcrt0.obj
 0002:00005b40       __pDefaultRawDllMain       10074b40     LIBCMT:dllcrt0.obj
 0002:00005b44       ??_C@_13NOLLCAOD@?$AA?$AA?$AA?$AA@ 10074b44     LIBCMT:a_map.obj
 0002:00005b48       ___newctype                10074b48     LIBCMT:ctype.obj
 0002:00005e48       __wctype                   10074e48     LIBCMT:ctype.obj
 0002:00006050       ___newclmap                10075050     LIBCMT:ctype.obj
 0002:000061d0       ___newcumap                100751d0     LIBCMT:ctype.obj
 0002:00006350       ??_C@_07LCBHPJJN@LC_TIME?$AA@ 10075350     LIBCMT:setlocal.obj
 0002:00006358       ??_C@_0L@DLHIECNL@LC_NUMERIC?$AA@ 10075358     LIBCMT:setlocal.obj
 0002:00006364       ??_C@_0M@MIENIKLA@LC_MONETARY?$AA@ 10075364     LIBCMT:setlocal.obj
 0002:00006370       ??_C@_08EADHIDAD@LC_CTYPE?$AA@ 10075370     LIBCMT:setlocal.obj
 0002:0000637c       ??_C@_0L@KFJHEKIK@LC_COLLATE?$AA@ 1007537c     LIBCMT:setlocal.obj
 0002:00006388       ??_C@_06NEFDFEKB@LC_ALL?$AA@ 10075388     LIBCMT:setlocal.obj
 0002:00006390       ___lc_category             10075390     LIBCMT:setlocal.obj
 0002:00006458       ??_C@_03EGDHDPFD@_?4?0?$AA@ 10075458     LIBCMT:setlocal.obj
 0002:0000645c       ??_C@_01IDAFKMJL@_?$AA@    1007545c     LIBCMT:setlocal.obj
 0002:00006460       ??_C@_01ICJEACDI@?$DL?$AA@ 10075460     LIBCMT:setlocal.obj
 0002:00006464       ??_C@_01NEMOKFLO@?$DN?$AA@ 10075464     LIBCMT:setlocal.obj
 0002:00006468       ??_C@_02BALPLPBG@?$DN?$DL?$AA@ 10075468     LIBCMT:setlocal.obj
 0002:0000646c       ??_C@_0P@MIGLKIOC@CorExitProcess?$AA@ 1007546c     LIBCMT:crt0dat.obj
 0002:0000647c       ??_C@_0M@MBOPBNBK@mscoree?4dll?$AA@ 1007547c     LIBCMT:crt0dat.obj
 0002:00006488       __pDestructExceptionObject 10075488     LIBCMT:frame.obj
 0002:00006490       ??_7bad_exception@std@@6B@ 10075490     LIBCMT:frame.obj
 0002:00006498       ??_C@_0O@DPKOEFFH@bad?5exception?$AA@ 10075498     LIBCMT:frame.obj
 0002:000064a8       ??_C@_05KLBDPFGC@e?$CL000?$AA@ 100754a8     LIBCMT:cvt.obj
 0002:000064b0       __real@4150017ec0000000    100754b0     LIBCMT:testfdiv.obj
 0002:000064b8       __real@4147ffff80000000    100754b8     LIBCMT:testfdiv.obj
 0002:000064c0       ??_C@_0BK@NHEOCAHP@IsProcessorFeaturePresent?$AA@ 100754c0     LIBCMT:testfdiv.obj
 0002:000064dc       ??_C@_08CPNIBGIE@KERNEL32?$AA@ 100754dc     LIBCMT:testfdiv.obj
 0002:00007d18       __DEFAULT_CW_in_mem        10076d18     LIBCMT:common.obj
 0002:00007d1a       __pi_by_2_to_61            10076d1a     LIBCMT:common.obj
 0002:00009fd8       ??_C@_03IIINPABG@tan?$AA@  10078fd8     LIBCMT:libm_error.obj
 0002:00009fdc       ??_C@_03LALBNOCG@cos?$AA@  10078fdc     LIBCMT:libm_error.obj
 0002:00009fe0       ??_C@_03BLEJJJBH@sin?$AA@  10078fe0     LIBCMT:libm_error.obj
 0002:00009fe4       ??_C@_04EHEDPDJG@modf?$AA@ 10078fe4     LIBCMT:libm_error.obj
 0002:00009fec       ??_C@_05PBJFFIGL@floor?$AA@ 10078fec     LIBCMT:libm_error.obj
 0002:00009ff4       ??_C@_04GFPJNGEK@ceil?$AA@ 10078ff4     LIBCMT:libm_error.obj
 0002:00009ffc       ??_C@_04MLLJIGOK@atan?$AA@ 10078ffc     LIBCMT:libm_error.obj
 0002:0000a004       ??_C@_05EOHGHCHD@exp10?$AA@ 10079004     LIBCMT:libm_error.obj
 0002:0000a00c       ??_C@_04PDIFKINK@acos?$AA@ 1007900c     LIBCMT:libm_error.obj
 0002:0000a014       ??_C@_04FIHNOPOL@asin?$AA@ 10079014     LIBCMT:libm_error.obj
 0002:0000a01c       ??_C@_03MGHMBJCF@log?$AA@  1007901c     LIBCMT:libm_error.obj
 0002:0000a020       ??_C@_05HGHHAHAP@log10?$AA@ 10079020     LIBCMT:libm_error.obj
 0002:0000a028       ??_C@_03KHJOGHMM@exp?$AA@  10079028     LIBCMT:libm_error.obj
 0002:0000a02c       ??_C@_03JGHBODFD@pow?$AA@  1007902c     LIBCMT:libm_error.obj
 0002:0000bf78       ??_C@_1O@CEDCILHN@?$AA?$CI?$AAn?$AAu?$AAl?$AAl?$AA?$CJ?$AA?$AA@ 1007af78     LIBCMT:output.obj
 0002:0000bf88       ??_C@_06OJHGLDPL@?$CInull?$CJ?$AA@ 1007af88     LIBCMT:output.obj
 0002:0000bf90       ___lookuptable             1007af90     LIBCMT:output.obj
 0002:0000bfec       ??_C@_0O@NLDKAIKN@EncodePointer?$AA@ 1007afec     LIBCMT:tidtable.obj
 0002:0000bffc       ??_C@_0N@NHGLKGEC@KERNEL32?4DLL?$AA@ 1007affc     LIBCMT:tidtable.obj
 0002:0000c00c       ??_C@_0O@KBPMFGHI@DecodePointer?$AA@ 1007b00c     LIBCMT:tidtable.obj
 0002:0000c01c       ??_C@_07PEJMOBNF@FlsFree?$AA@ 1007b01c     LIBCMT:tidtable.obj
 0002:0000c024       ??_C@_0M@JCPCPOEF@FlsSetValue?$AA@ 1007b024     LIBCMT:tidtable.obj
 0002:0000c030       ??_C@_0M@GDNOONDI@FlsGetValue?$AA@ 1007b030     LIBCMT:tidtable.obj
 0002:0000c03c       ??_C@_08KNHFBNJ@FlsAlloc?$AA@ 1007b03c     LIBCMT:tidtable.obj
 0002:0000c048       ___lookuptable_s           1007b048     LIBCMT:outputs.obj
 0002:0000c0a4       ??_C@_08JCCMCCIL@HH?3mm?3ss?$AA@ 1007b0a4     LIBCMT:strftime.obj
 0002:0000c0b0       ??_C@_0BE@CKGJFCPC@dddd?0?5MMMM?5dd?0?5yyyy?$AA@ 1007b0b0     LIBCMT:strftime.obj
 0002:0000c0c4       ??_C@_08BPBNCDIB@MM?1dd?1yy?$AA@ 1007b0c4     LIBCMT:strftime.obj
 0002:0000c0d0       ??_C@_02CJNFDJBF@PM?$AA@   1007b0d0     LIBCMT:strftime.obj
 0002:0000c0d4       ??_C@_02DEDBPAFC@AM?$AA@   1007b0d4     LIBCMT:strftime.obj
 0002:0000c0d8       ??_C@_08EDHMEBNP@December?$AA@ 1007b0d8     LIBCMT:strftime.obj
 0002:0000c0e4       ??_C@_08HCHEGEOA@November?$AA@ 1007b0e4     LIBCMT:strftime.obj
 0002:0000c0f0       ??_C@_07JJNFCEND@October?$AA@ 1007b0f0     LIBCMT:strftime.obj
 0002:0000c0f8       ??_C@_09BHHEALKD@September?$AA@ 1007b0f8     LIBCMT:strftime.obj
 0002:0000c104       ??_C@_06LBBHFDDG@August?$AA@ 1007b104     LIBCMT:strftime.obj
 0002:0000c10c       ??_C@_04MIEPOIFP@July?$AA@ 1007b10c     LIBCMT:strftime.obj
 0002:0000c114       ??_C@_04CNLMGBGM@June?$AA@ 1007b114     LIBCMT:strftime.obj
 0002:0000c11c       ??_C@_05DMJDNLEJ@April?$AA@ 1007b11c     LIBCMT:strftime.obj
 0002:0000c124       ??_C@_05HPCKOFNC@March?$AA@ 1007b124     LIBCMT:strftime.obj
 0002:0000c12c       ??_C@_08GNJGEPFN@February?$AA@ 1007b12c     LIBCMT:strftime.obj
 0002:0000c138       ??_C@_07CGJPFGJA@January?$AA@ 1007b138     LIBCMT:strftime.obj
 0002:0000c140       ??_C@_03MKABNOCG@Dec?$AA@  1007b140     LIBCMT:strftime.obj
 0002:0000c144       ??_C@_03JPJOFNIA@Nov?$AA@  1007b144     LIBCMT:strftime.obj
 0002:0000c148       ??_C@_03BMAOKBAD@Oct?$AA@  1007b148     LIBCMT:strftime.obj
 0002:0000c14c       ??_C@_03GGCAPAJC@Sep?$AA@  1007b14c     LIBCMT:strftime.obj
 0002:0000c150       ??_C@_03IFJFEIGA@Aug?$AA@  1007b150     LIBCMT:strftime.obj
 0002:0000c154       ??_C@_03LBGABGKK@Jul?$AA@  1007b154     LIBCMT:strftime.obj
 0002:0000c158       ??_C@_03IDFGHECI@Jun?$AA@  1007b158     LIBCMT:strftime.obj
 0002:0000c15c       ??_C@_03CNMDKL@May?$AA@    1007b15c     LIBCMT:strftime.obj
 0002:0000c160       ??_C@_03LEOLGMJP@Apr?$AA@  1007b160     LIBCMT:strftime.obj
 0002:0000c164       ??_C@_03ODNJBKGA@Mar?$AA@  1007b164     LIBCMT:strftime.obj
 0002:0000c168       ??_C@_03HJBDCHOM@Feb?$AA@  1007b168     LIBCMT:strftime.obj
 0002:0000c16c       ??_C@_03JIHJHPIE@Jan?$AA@  1007b16c     LIBCMT:strftime.obj
 0002:0000c170       ??_C@_08INBOOONO@Saturday?$AA@ 1007b170     LIBCMT:strftime.obj
 0002:0000c17c       ??_C@_06JECMNKMI@Friday?$AA@ 1007b17c     LIBCMT:strftime.obj
 0002:0000c184       ??_C@_08HACCIKIA@Thursday?$AA@ 1007b184     LIBCMT:strftime.obj
 0002:0000c190       ??_C@_09DLIGFAKA@Wednesday?$AA@ 1007b190     LIBCMT:strftime.obj
 0002:0000c19c       ??_C@_07BAAGCFCM@Tuesday?$AA@ 1007b19c     LIBCMT:strftime.obj
 0002:0000c1a4       ??_C@_06JLEDEDGH@Monday?$AA@ 1007b1a4     LIBCMT:strftime.obj
 0002:0000c1ac       ??_C@_06OOPIFAJ@Sunday?$AA@ 1007b1ac     LIBCMT:strftime.obj
 0002:0000c1b4       ??_C@_03FEFJNEK@Sat?$AA@   1007b1b4     LIBCMT:strftime.obj
 0002:0000c1b8       ??_C@_03IDIOELNC@Fri?$AA@  1007b1b8     LIBCMT:strftime.obj
 0002:0000c1bc       ??_C@_03IOFIKPDN@Thu?$AA@  1007b1bc     LIBCMT:strftime.obj
 0002:0000c1c0       ??_C@_03MHOMLAJA@Wed?$AA@  1007b1c0     LIBCMT:strftime.obj
 0002:0000c1c4       ??_C@_03NAGEINEP@Tue?$AA@  1007b1c4     LIBCMT:strftime.obj
 0002:0000c1c8       ??_C@_03PDAGKDH@Mon?$AA@   1007b1c8     LIBCMT:strftime.obj
 0002:0000c1cc       ??_C@_03KOEHGMDN@Sun?$AA@  1007b1cc     LIBCMT:strftime.obj
 0002:0000c1d0       ??_C@_03EBAPMIKO@a?1p?$AA@ 1007b1d0     LIBCMT:strftime.obj
 0002:0000c1d4       ??_C@_05JAMEPDIN@am?1pm?$AA@ 1007b1d4     LIBCMT:strftime.obj
 0002:0000c1dc       ??_C@_0O@FMJNFNKE@united?9states?$AA@ 1007b1dc     LIBCMT:getqloc.obj
 0002:0000c1ec       ??_C@_0P@NDHFFKCA@united?9kingdom?$AA@ 1007b1ec     LIBCMT:getqloc.obj
 0002:0000c1fc       ??_C@_0BC@HHDADLGF@trinidad?5?$CG?5tobago?$AA@ 1007b1fc     LIBCMT:getqloc.obj
 0002:0000c210       ??_C@_0M@IOAEBDAC@south?9korea?$AA@ 1007b210     LIBCMT:getqloc.obj
 0002:0000c21c       ??_C@_0N@FIELFKIJ@south?9africa?$AA@ 1007b21c     LIBCMT:getqloc.obj
 0002:0000c22c       ??_C@_0M@OPNDHCMC@south?5korea?$AA@ 1007b22c     LIBCMT:getqloc.obj
 0002:0000c238       ??_C@_0N@MDEOEPFI@south?5africa?$AA@ 1007b238     LIBCMT:getqloc.obj
 0002:0000c248       ??_C@_06FKAPCJLB@slovak?$AA@ 1007b248     LIBCMT:getqloc.obj
 0002:0000c250       ??_C@_0M@EFJANOAL@puerto?9rico?$AA@ 1007b250     LIBCMT:getqloc.obj
 0002:0000c25c       ??_C@_08PGOJKDAI@pr?9china?$AA@ 1007b25c     LIBCMT:getqloc.obj
 0002:0000c268       ??_C@_08JHDOMCMI@pr?5china?$AA@ 1007b268     LIBCMT:getqloc.obj
 0002:0000c274       ??_C@_02JHCHFBLL@nz?$AA@   1007b274     LIBCMT:getqloc.obj
 0002:0000c278       ??_C@_0M@LINHDHKP@new?9zealand?$AA@ 1007b278     LIBCMT:getqloc.obj
 0002:0000c284       ??_C@_09IIIPPBDB@hong?9kong?$AA@ 1007b284     LIBCMT:getqloc.obj
 0002:0000c290       ??_C@_07HJLCKBG@holland?$AA@ 1007b290     LIBCMT:getqloc.obj
 0002:0000c298       ??_C@_0O@LEHGMHAG@great?5britain?$AA@ 1007b298     LIBCMT:getqloc.obj
 0002:0000c2a8       ??_C@_07FACOMELA@england?$AA@ 1007b2a8     LIBCMT:getqloc.obj
 0002:0000c2b0       ??_C@_05JIHCEICB@czech?$AA@ 1007b2b0     LIBCMT:getqloc.obj
 0002:0000c2b8       ??_C@_05BBJOBLGB@china?$AA@ 1007b2b8     LIBCMT:getqloc.obj
 0002:0000c2c0       ??_C@_07GPKPHICP@britain?$AA@ 1007b2c0     LIBCMT:getqloc.obj
 0002:0000c2c8       ??_C@_07MHIPBHMG@america?$AA@ 1007b2c8     LIBCMT:getqloc.obj
 0002:0000c2d0       ??_C@_03KIALPMKC@usa?$AA@  1007b2d0     LIBCMT:getqloc.obj
 0002:0000c2d4       ??_C@_02FGJGKGGD@us?$AA@   1007b2d4     LIBCMT:getqloc.obj
 0002:0000c2d8       ??_C@_02NEINDODK@uk?$AA@   1007b2d8     LIBCMT:getqloc.obj
 0002:0000c2dc       ??_C@_05JMPCFJFJ@swiss?$AA@ 1007b2dc     LIBCMT:getqloc.obj
 0002:0000c2e4       ??_C@_0BA@HLOCPIOD@swedish?9finland?$AA@ 1007b2e4     LIBCMT:getqloc.obj
 0002:0000c2f4       ??_C@_0BC@PKCNIABK@spanish?9venezuela?$AA@ 1007b2f4     LIBCMT:getqloc.obj
 0002:0000c308       ??_C@_0BA@GBHHMIJI@spanish?9uruguay?$AA@ 1007b308     LIBCMT:getqloc.obj
 0002:0000c318       ??_C@_0BE@BHDOHPMC@spanish?9puerto?5rico?$AA@ 1007b318     LIBCMT:getqloc.obj
 0002:0000c32c       ??_C@_0N@KMOIDGGN@spanish?9peru?$AA@ 1007b32c     LIBCMT:getqloc.obj
 0002:0000c33c       ??_C@_0BB@HMHLPGPH@spanish?9paraguay?$AA@ 1007b33c     LIBCMT:getqloc.obj
 0002:0000c350       ??_C@_0P@MCPKNGFD@spanish?9panama?$AA@ 1007b350     LIBCMT:getqloc.obj
 0002:0000c360       ??_C@_0BC@IHOHGAIL@spanish?9nicaragua?$AA@ 1007b360     LIBCMT:getqloc.obj
 0002:0000c374       ??_C@_0P@KLMJDNFJ@spanish?9modern?$AA@ 1007b374     LIBCMT:getqloc.obj
 0002:0000c384       ??_C@_0BA@BPAPGBCM@spanish?9mexican?$AA@ 1007b384     LIBCMT:getqloc.obj
 0002:0000c394       ??_C@_0BB@PDECHHHE@spanish?9honduras?$AA@ 1007b394     LIBCMT:getqloc.obj
 0002:0000c3a8       ??_C@_0BC@KLHKFGDB@spanish?9guatemala?$AA@ 1007b3a8     LIBCMT:getqloc.obj
 0002:0000c3bc       ??_C@_0BE@MFOOKJAI@spanish?9el?5salvador?$AA@ 1007b3bc     LIBCMT:getqloc.obj
 0002:0000c3d0       ??_C@_0BA@FCOKFPFC@spanish?9ecuador?$AA@ 1007b3d0     LIBCMT:getqloc.obj
 0002:0000c3e0       ??_C@_0BL@PLMGIMOO@spanish?9dominican?5republic?$AA@ 1007b3e0     LIBCMT:getqloc.obj
 0002:0000c3fc       ??_C@_0BD@HLGDNMHB@spanish?9costa?5rica?$AA@ 1007b3fc     LIBCMT:getqloc.obj
 0002:0000c410       ??_C@_0BB@PKCBKCPE@spanish?9colombia?$AA@ 1007b410     LIBCMT:getqloc.obj
 0002:0000c424       ??_C@_0O@MCBIJGNE@spanish?9chile?$AA@ 1007b424     LIBCMT:getqloc.obj
 0002:0000c434       ??_C@_0BA@BEFEIGJJ@spanish?9bolivia?$AA@ 1007b434     LIBCMT:getqloc.obj
 0002:0000c444       ??_C@_0BC@EMECMPD@spanish?9argentina?$AA@ 1007b444     LIBCMT:getqloc.obj
 0002:0000c458       ??_C@_0BF@EALFLENP@portuguese?9brazilian?$AA@ 1007b458     LIBCMT:getqloc.obj
 0002:0000c470       ??_C@_0BC@HBLEBLNN@norwegian?9nynorsk?$AA@ 1007b470     LIBCMT:getqloc.obj
 0002:0000c484       ??_C@_0BB@HMACDDCK@norwegian?9bokmal?$AA@ 1007b484     LIBCMT:getqloc.obj
 0002:0000c498       ??_C@_09BAFFPPHE@norwegian?$AA@ 1007b498     LIBCMT:getqloc.obj
 0002:0000c4a4       ??_C@_0O@EAJFJDFG@italian?9swiss?$AA@ 1007b4a4     LIBCMT:getqloc.obj
 0002:0000c4b4       ??_C@_0O@CNOMPGD@irish?9english?$AA@ 1007b4b4     LIBCMT:getqloc.obj
 0002:0000c4c4       ??_C@_0N@EDHBGCKG@german?9swiss?$AA@ 1007b4c4     LIBCMT:getqloc.obj
 0002:0000c4d4       ??_C@_0BC@JACMHNBP@german?9luxembourg?$AA@ 1007b4d4     LIBCMT:getqloc.obj
 0002:0000c4e8       ??_C@_0BE@HBGMGFEG@german?9lichtenstein?$AA@ 1007b4e8     LIBCMT:getqloc.obj
 0002:0000c4fc       ??_C@_0BA@HKKBIBKL@german?9austrian?$AA@ 1007b4fc     LIBCMT:getqloc.obj
 0002:0000c50c       ??_C@_0N@GCAEPEBK@french?9swiss?$AA@ 1007b50c     LIBCMT:getqloc.obj
 0002:0000c51c       ??_C@_0BC@DJFJJCK@french?9luxembourg?$AA@ 1007b51c     LIBCMT:getqloc.obj
 0002:0000c530       ??_C@_0BA@NNCEDFIC@french?9canadian?$AA@ 1007b530     LIBCMT:getqloc.obj
 0002:0000c540       ??_C@_0P@CMPOCLM@french?9belgian?$AA@ 1007b540     LIBCMT:getqloc.obj
 0002:0000c550       ??_C@_0M@GHHDJOK@english?9usa?$AA@ 1007b550     LIBCMT:getqloc.obj
 0002:0000c55c       ??_C@_0L@PLDJKEIL@english?9us?$AA@ 1007b55c     LIBCMT:getqloc.obj
 0002:0000c568       ??_C@_0L@HJCCDMNC@english?9uk?$AA@ 1007b568     LIBCMT:getqloc.obj
 0002:0000c574       ??_C@_0BK@CKLIAGJB@english?9trinidad?5y?5tobago?$AA@ 1007b574     LIBCMT:getqloc.obj
 0002:0000c590       ??_C@_0BF@JMJMGNNF@english?9south?5africa?$AA@ 1007b590     LIBCMT:getqloc.obj
 0002:0000c5a8       ??_C@_0L@DKIIFDFD@english?9nz?$AA@ 1007b5a8     LIBCMT:getqloc.obj
 0002:0000c5b4       ??_C@_0BA@ONHGJCLH@english?9jamaica?$AA@ 1007b5b4     LIBCMT:getqloc.obj
 0002:0000c5c4       ??_C@_0M@HJBGHOPO@english?9ire?$AA@ 1007b5c4     LIBCMT:getqloc.obj
 0002:0000c5d0       ??_C@_0BC@LFEKMIFB@english?9caribbean?$AA@ 1007b5d0     LIBCMT:getqloc.obj
 0002:0000c5e4       ??_C@_0M@OLDPFKHI@english?9can?$AA@ 1007b5e4     LIBCMT:getqloc.obj
 0002:0000c5f0       ??_C@_0P@OMDEHBMP@english?9belize?$AA@ 1007b5f0     LIBCMT:getqloc.obj
 0002:0000c600       ??_C@_0M@KFHFPFED@english?9aus?$AA@ 1007b600     LIBCMT:getqloc.obj
 0002:0000c60c       ??_C@_0BB@MNMBKDFE@english?9american?$AA@ 1007b60c     LIBCMT:getqloc.obj
 0002:0000c620       ??_C@_0O@KIDLNNBA@dutch?9belgian?$AA@ 1007b620     LIBCMT:getqloc.obj
 0002:0000c630       ??_C@_0BE@JBKABBMH@chinese?9traditional?$AA@ 1007b630     LIBCMT:getqloc.obj
 0002:0000c644       ??_C@_0BC@MJJMPKCG@chinese?9singapore?$AA@ 1007b644     LIBCMT:getqloc.obj
 0002:0000c658       ??_C@_0BD@FDKADDCP@chinese?9simplified?$AA@ 1007b658     LIBCMT:getqloc.obj
 0002:0000c66c       ??_C@_0BB@DBEFDDME@chinese?9hongkong?$AA@ 1007b66c     LIBCMT:getqloc.obj
 0002:0000c680       ??_C@_07DHNMFMCI@chinese?$AA@ 1007b680     LIBCMT:getqloc.obj
 0002:0000c688       ??_C@_03FNDDCHI@chi?$AA@   1007b688     LIBCMT:getqloc.obj
 0002:0000c68c       ??_C@_03BMMIADDJ@chh?$AA@  1007b68c     LIBCMT:getqloc.obj
 0002:0000c690       ??_C@_08OAIPJDGI@canadian?$AA@ 1007b690     LIBCMT:getqloc.obj
 0002:0000c69c       ??_C@_07HBPMNPNJ@belgian?$AA@ 1007b69c     LIBCMT:getqloc.obj
 0002:0000c6a4       ??_C@_0L@OEKOPBEL@australian?$AA@ 1007b6a4     LIBCMT:getqloc.obj
 0002:0000c6b0       ??_C@_0BB@MEIMBEDG@american?9english?$AA@ 1007b6b0     LIBCMT:getqloc.obj
 0002:0000c6c4       ??_C@_0BB@DFMDPDGB@american?5english?$AA@ 1007b6c4     LIBCMT:getqloc.obj
 0002:0000c6d8       ??_C@_08IJLOKOLL@american?$AA@ 1007b6d8     LIBCMT:getqloc.obj
 0002:0000c6e8       ___rg_language             1007b6e8     LIBCMT:getqloc.obj
 0002:0000c8f0       ___rg_country              1007b8f0     LIBCMT:getqloc.obj
 0002:0000c9a8       ___rglangidNotDefault      1007b9a8     LIBCMT:getqloc.obj
 0002:0000c9bc       ??_C@_03NFKLAGEF@OCP?$AA@  1007b9bc     LIBCMT:getqloc.obj
 0002:0000c9c0       ??_C@_03DFHEHBHG@ACP?$AA@  1007b9c0     LIBCMT:getqloc.obj
 0002:0000c9c4       ??_C@_0BC@NFIEMBLL@Norwegian?9Nynorsk?$AA@ 1007b9c4     LIBCMT:getqloc.obj
 0002:0000ca38       ??_C@_0P@GGKDKEEG@runtime?5error?5?$AA@ 1007ba38     LIBCMT:crt0msg.obj
 0002:0000ca48       ??_C@_02PCIJFNDE@?$AN?6?$AA@ 1007ba48     LIBCMT:crt0msg.obj
 0002:0000ca4c       ??_C@_0O@MJNIPGOH@TLOSS?5error?$AN?6?$AA@ 1007ba4c     LIBCMT:crt0msg.obj
 0002:0000ca5c       ??_C@_0N@BONNPDHF@SING?5error?$AN?6?$AA@ 1007ba5c     LIBCMT:crt0msg.obj
 0002:0000ca6c       ??_C@_0P@MBDAJNE@DOMAIN?5error?$AN?6?$AA@ 1007ba6c     LIBCMT:crt0msg.obj
 0002:0000ca80       ??_C@_0JL@DFDOOABL@R6034?$AN?6An?5application?5has?5made?5a@ 1007ba80     LIBCMT:crt0msg.obj
 0002:0000cb20       ??_C@_0PH@EPAFIJ@R6033?$AN?6?9?5Attempt?5to?5use?5MSIL?5cod@ 1007bb20     LIBCMT:crt0msg.obj
 0002:0000cc18       ??_C@_0DD@BKEEABMM@R6032?$AN?6?9?5not?5enough?5space?5for?5lo@ 1007bc18     LIBCMT:crt0msg.obj
 0002:0000cc50       ??_C@_0GD@OFKILIED@R6031?$AN?6?9?5Attempt?5to?5initialize?5t@ 1007bc50     LIBCMT:crt0msg.obj
 0002:0000ccb4       ??_C@_0BP@LPMHJOKI@R6030?$AN?6?9?5CRT?5not?5initialized?$AN?6?$AA@ 1007bcb4     LIBCMT:crt0msg.obj
 0002:0000ccd4       ??_C@_0CF@KJDAIALP@R6028?$AN?6?9?5unable?5to?5initialize?5he@ 1007bcd4     LIBCMT:crt0msg.obj
 0002:0000ccfc       ??_C@_0DF@GAKBPDFP@R6027?$AN?6?9?5not?5enough?5space?5for?5lo@ 1007bcfc     LIBCMT:crt0msg.obj
 0002:0000cd34       ??_C@_0DF@IBLNNAIG@R6026?$AN?6?9?5not?5enough?5space?5for?5st@ 1007bd34     LIBCMT:crt0msg.obj
 0002:0000cd6c       ??_C@_0CG@IOHKGFNJ@R6025?$AN?6?9?5pure?5virtual?5function?5c@ 1007bd6c     LIBCMT:crt0msg.obj
 0002:0000cd94       ??_C@_0DF@JIJJFJDC@R6024?$AN?6?9?5not?5enough?5space?5for?5_o@ 1007bd94     LIBCMT:crt0msg.obj
 0002:0000cdcc       ??_C@_0CJ@EGEJHFME@R6019?$AN?6?9?5unable?5to?5open?5console?5@ 1007bdcc     LIBCMT:crt0msg.obj
 0002:0000cdf8       ??_C@_0CB@GNHNIELH@R6018?$AN?6?9?5unexpected?5heap?5error?$AN?6@ 1007bdf8     LIBCMT:crt0msg.obj
 0002:0000ce1c       ??_C@_0CN@FOLDKNG@R6017?$AN?6?9?5unexpected?5multithread?5@ 1007be1c     LIBCMT:crt0msg.obj
 0002:0000ce4c       ??_C@_0CM@FAHFJNHO@R6016?$AN?6?9?5not?5enough?5space?5for?5th@ 1007be4c     LIBCMT:crt0msg.obj
 0002:0000ce78       ??_C@_0JG@LBKMGKLD@?$AN?6This?5application?5has?5requested@ 1007be78     LIBCMT:crt0msg.obj
 0002:0000cf10       ??_C@_0CM@FLCNIPKK@R6009?$AN?6?9?5not?5enough?5space?5for?5en@ 1007bf10     LIBCMT:crt0msg.obj
 0002:0000cf3c       ??_C@_0CK@KMMJOAPP@R6008?$AN?6?9?5not?5enough?5space?5for?5ar@ 1007bf3c     LIBCMT:crt0msg.obj
 0002:0000cf68       ??_C@_0CF@HOHMHDEK@R6002?$AN?6?9?5floating?5point?5not?5load@ 1007bf68     LIBCMT:crt0msg.obj
 0002:0000cf90       ??_C@_0CF@GOGNBNAK@Microsoft?5Visual?5C?$CL?$CL?5Runtime?5Lib@ 1007bf90     LIBCMT:crt0msg.obj
 0002:0000cfb8       ??_C@_02PHMGELLB@?6?6?$AA@ 1007bfb8     LIBCMT:crt0msg.obj
 0002:0000cfbc       ??_C@_03KHICJKCI@?4?4?4?$AA@ 1007bfbc     LIBCMT:crt0msg.obj
 0002:0000cfc0       ??_C@_0BH@DNAGHKFM@?$DMprogram?5name?5unknown?$DO?$AA@ 1007bfc0     LIBCMT:crt0msg.obj
 0002:0000cfd8       ??_C@_0BK@OFGJDLJJ@Runtime?5Error?$CB?6?6Program?3?5?$AA@ 1007bfd8     LIBCMT:crt0msg.obj
 0002:0000cff4       ??_C@_0BC@JEAENNKH@SystemFunction036?$AA@ 1007bff4     LIBCMT:rand_s.obj
 0002:0000d008       ??_C@_0N@JJPEKNFO@ADVAPI32?4DLL?$AA@ 1007c008     LIBCMT:rand_s.obj
 0002:0000d018       ??_C@_0CG@PKBDLMEO@InitializeCriticalSectionAndSpin@ 1007c018     LIBCMT:initcrit.obj
 0002:0000d040       ??_C@_0N@MDJJJHMB@kernel32?4dll?$AA@ 1007c040     LIBCMT:initcrit.obj
 0002:0000d050       ??_C@_0BK@CFCOFLF@?5Complete?5Object?5Locator?8?$AA@ 1007c050     LIBCMT:undname.obj
 0002:0000d06c       ??_C@_0BN@MECKDCOJ@?5Class?5Hierarchy?5Descriptor?8?$AA@ 1007c06c     LIBCMT:undname.obj
 0002:0000d08c       ??_C@_0BD@LGICGFMM@?5Base?5Class?5Array?8?$AA@ 1007c08c     LIBCMT:undname.obj
 0002:0000d0a0       ??_C@_0BM@LDKODKLH@?5Base?5Class?5Descriptor?5at?5?$CI?$AA@ 1007c0a0     LIBCMT:undname.obj
 0002:0000d0bc       ??_C@_0BC@DAFEJGAK@?5Type?5Descriptor?8?$AA@ 1007c0bc     LIBCMT:undname.obj
 0002:0000d0d0       ??_C@_0BM@PMGGMLDN@?$GAlocal?5static?5thread?5guard?8?$AA@ 1007c0d0     LIBCMT:undname.obj
 0002:0000d0ec       ??_C@_0CL@FGIJHLCE@?$GAmanaged?5vector?5copy?5constructor@ 1007c0ec     LIBCMT:undname.obj
 0002:0000d118       ??_C@_0CJ@GJELGAMM@?$GAvector?5vbase?5copy?5constructor?5i@ 1007c118     LIBCMT:undname.obj
 0002:0000d144       ??_C@_0CD@CGAJBKEJ@?$GAvector?5copy?5constructor?5iterato@ 1007c144     LIBCMT:undname.obj
 0002:0000d168       ??_C@_0CB@PDBIFEP@?$GAdynamic?5atexit?5destructor?5for?5?8@ 1007c168     LIBCMT:undname.obj
 0002:0000d18c       ??_C@_0BL@CLIPGLGB@?$GAdynamic?5initializer?5for?5?8?$AA@ 1007c18c     LIBCMT:undname.obj
 0002:0000d1a8       ??_C@_0CM@FCBBDIGB@?$GAeh?5vector?5vbase?5copy?5constructo@ 1007c1a8     LIBCMT:undname.obj
 0002:0000d1d4       ??_C@_0CG@HLDDJMAG@?$GAeh?5vector?5copy?5constructor?5iter@ 1007c1d4     LIBCMT:undname.obj
 0002:0000d1fc       ??_C@_0CF@IMGKMJNO@?$GAmanaged?5vector?5destructor?5itera@ 1007c1fc     LIBCMT:undname.obj
 0002:0000d224       ??_C@_0CG@CFDHKGGD@?$GAmanaged?5vector?5constructor?5iter@ 1007c224     LIBCMT:undname.obj
 0002:0000d24c       ??_C@_0BN@CKNJLHMB@?$GAplacement?5delete?$FL?$FN?5closure?8?$AA@ 1007c24c     LIBCMT:undname.obj
 0002:0000d26c       ??_C@_0BL@CNOONJFP@?$GAplacement?5delete?5closure?8?$AA@ 1007c26c     LIBCMT:undname.obj
 0002:0000d288       ??_C@_0P@HJKNJFNN@?$GAomni?5callsig?8?$AA@ 1007c288     LIBCMT:undname.obj
 0002:0000d298       ??_C@_09LBNFPBCA@?5delete?$FL?$FN?$AA@ 1007c298     LIBCMT:undname.obj
 0002:0000d2a4       ??_C@_06FHBGPFGH@?5new?$FL?$FN?$AA@ 1007c2a4     LIBCMT:undname.obj
 0002:0000d2ac       ??_C@_0CE@IIHCMGGL@?$GAlocal?5vftable?5constructor?5closu@ 1007c2ac     LIBCMT:undname.obj
 0002:0000d2d0       ??_C@_0BA@KKLDJDLB@?$GAlocal?5vftable?8?$AA@ 1007c2d0     LIBCMT:undname.obj
 0002:0000d2e0       ??_C@_05KHLCHHI@?$GARTTI?$AA@ 1007c2e0     LIBCMT:undname.obj
 0002:0000d2e8       ??_C@_03KLGMFNMG@?$GAEH?$AA@ 1007c2e8     LIBCMT:undname.obj
 0002:0000d2ec       ??_C@_0BA@KBCDOMBN@?$GAudt?5returning?8?$AA@ 1007c2ec     LIBCMT:undname.obj
 0002:0000d2fc       ??_C@_0BL@LLKPOHJI@?$GAcopy?5constructor?5closure?8?$AA@ 1007c2fc     LIBCMT:undname.obj
 0002:0000d318       ??_C@_0CH@OOJPLCPH@?$GAeh?5vector?5vbase?5constructor?5ite@ 1007c318     LIBCMT:undname.obj
 0002:0000d340       ??_C@_0CA@GCEOPDGL@?$GAeh?5vector?5destructor?5iterator?8?$AA@ 1007c340     LIBCMT:undname.obj
 0002:0000d360       ??_C@_0CB@JONCMFFK@?$GAeh?5vector?5constructor?5iterator?8@ 1007c360     LIBCMT:undname.obj
 0002:0000d384       ??_C@_0BL@NILFHHPC@?$GAvirtual?5displacement?5map?8?$AA@ 1007c384     LIBCMT:undname.obj
 0002:0000d3a0       ??_C@_0CE@IKBNEHA@?$GAvector?5vbase?5constructor?5iterat@ 1007c3a0     LIBCMT:undname.obj
 0002:0000d3c4       ??_C@_0BN@LFPFMEDL@?$GAvector?5destructor?5iterator?8?$AA@ 1007c3c4     LIBCMT:undname.obj
 0002:0000d3e4       ??_C@_0BO@PFGOCPJJ@?$GAvector?5constructor?5iterator?8?$AA@ 1007c3e4     LIBCMT:undname.obj
 0002:0000d404       ??_C@_0BN@IMDCHIKM@?$GAscalar?5deleting?5destructor?8?$AA@ 1007c404     LIBCMT:undname.obj
 0002:0000d424       ??_C@_0BO@OBMKPJIG@?$GAdefault?5constructor?5closure?8?$AA@ 1007c424     LIBCMT:undname.obj
 0002:0000d444       ??_C@_0BN@DEGPLNFK@?$GAvector?5deleting?5destructor?8?$AA@ 1007c444     LIBCMT:undname.obj
 0002:0000d464       ??_C@_0BD@JDLKDPAB@?$GAvbase?5destructor?8?$AA@ 1007c464     LIBCMT:undname.obj
 0002:0000d478       ??_C@_08OBABFOLI@?$GAstring?8?$AA@ 1007c478     LIBCMT:undname.obj
 0002:0000d484       ??_C@_0BF@KDPPACIK@?$GAlocal?5static?5guard?8?$AA@ 1007c484     LIBCMT:undname.obj
 0002:0000d49c       ??_C@_08LLFFHHDJ@?$GAtypeof?8?$AA@ 1007c49c     LIBCMT:undname.obj
 0002:0000d4a8       ??_C@_07FEEIOKP@?$GAvcall?8?$AA@ 1007c4a8     LIBCMT:undname.obj
 0002:0000d4b0       ??_C@_09BLBHBJP@?$GAvbtable?8?$AA@ 1007c4b0     LIBCMT:undname.obj
 0002:0000d4bc       ??_C@_09IFPLHPGF@?$GAvftable?8?$AA@ 1007c4bc     LIBCMT:undname.obj
 0002:0000d4c8       ??_C@_02MHEGNOJ@?$FO?$DN?$AA@ 1007c4c8     LIBCMT:undname.obj
 0002:0000d4cc       ??_C@_02DHLNPPGH@?$HM?$DN?$AA@ 1007c4cc     LIBCMT:undname.obj
 0002:0000d4d0       ??_C@_02FGJGFEAB@?$CG?$DN?$AA@ 1007c4d0     LIBCMT:undname.obj
 0002:0000d4d4       ??_C@_03CDNPDDLA@?$DM?$DM?$DN?$AA@ 1007c4d4     LIBCMT:undname.obj
 0002:0000d4d8       ??_C@_03IKFCCPFF@?$DO?$DO?$DN?$AA@ 1007c4d8     LIBCMT:undname.obj
 0002:0000d4dc       ??_C@_02FENAOKFI@?$CF?$DN?$AA@ 1007c4dc     LIBCMT:undname.obj
 0002:0000d4e0       ??_C@_02FJEHGPIO@?1?$DN?$AA@ 1007c4e0     LIBCMT:undname.obj
 0002:0000d4e4       ??_C@_02FKMDLLOA@?9?$DN?$AA@ 1007c4e4     LIBCMT:undname.obj
 0002:0000d4e8       ??_C@_02FOEOMHFC@?$CL?$DN?$AA@ 1007c4e8     LIBCMT:undname.obj
 0002:0000d4ec       ??_C@_02FPIMKNGF@?$CK?$DN?$AA@ 1007c4ec     LIBCMT:undname.obj
 0002:0000d4f0       ??_C@_02NONPIBCD@?$HM?$HM?$AA@ 1007c4f0     LIBCMT:undname.obj
 0002:0000d4f4       ??_C@_02PPKAJPJL@?$CG?$CG?$AA@ 1007c4f4     LIBCMT:undname.obj
 0002:0000d4f8       ??_C@_01DNKMNLPK@?$HM?$AA@ 1007c4f8     LIBCMT:undname.obj
 0002:0000d4fc       ??_C@_01JKBOJNNK@?$FO?$AA@ 1007c4fc     LIBCMT:undname.obj
 0002:0000d500       ??_C@_01PJKLJHI@?$HO?$AA@  1007c500     LIBCMT:undname.obj
 0002:0000d504       ??_C@_02HCKGKOFO@?$CI?$CJ?$AA@ 1007c504     LIBCMT:undname.obj
 0002:0000d508       ??_C@_01IHBHIGKO@?0?$AA@   1007c508     LIBCMT:undname.obj
 0002:0000d50c       ??_C@_02EEKDKGMJ@?$DO?$DN?$AA@ 1007c50c     LIBCMT:undname.obj
 0002:0000d510       ??_C@_02EHCHHCKH@?$DM?$DN?$AA@ 1007c510     LIBCMT:undname.obj
 0002:0000d514       ??_C@_01FGNFDNOH@?$CF?$AA@ 1007c514     LIBCMT:undname.obj
 0002:0000d518       ??_C@_01KMDKNFGN@?1?$AA@   1007c518     LIBCMT:undname.obj
 0002:0000d51c       ??_C@_03MNHNFDLC@?9?$DO?$CK?$AA@ 1007c51c     LIBCMT:undname.obj
 0002:0000d520       ??_C@_01HNPIGOCE@?$CG?$AA@ 1007c520     LIBCMT:undname.obj
 0002:0000d524       ??_C@_01JOAMLHOP@?9?$AA@   1007c524     LIBCMT:undname.obj
 0002:0000d528       ??_C@_02BAABKJLB@?9?9?$AA@ 1007c528     LIBCMT:undname.obj
 0002:0000d52c       ??_C@_02ECNGHCIF@?$CL?$CL?$AA@ 1007c52c     LIBCMT:undname.obj
 0002:0000d530       ??_C@_02HBOOOICD@?9?$DO?$AA@ 1007c530     LIBCMT:undname.obj
 0002:0000d534       ??_C@_08LHJFAFGD@operator?$AA@ 1007c534     LIBCMT:undname.obj
 0002:0000d540       ??_C@_02GPECMEKF@?$FL?$FN?$AA@ 1007c540     LIBCMT:undname.obj
 0002:0000d544       ??_C@_02FDNJECIE@?$CB?$DN?$AA@ 1007c544     LIBCMT:undname.obj
 0002:0000d548       ??_C@_02EGOFBIJA@?$DN?$DN?$AA@ 1007c548     LIBCMT:undname.obj
 0002:0000d54c       ??_C@_01DCLJPIOD@?$CB?$AA@ 1007c54c     LIBCMT:undname.obj
 0002:0000d550       ??_C@_02FODMEDOG@?$DM?$DM?$AA@ 1007c550     LIBCMT:undname.obj
 0002:0000d554       ??_C@_02GPIOPFAK@?$DO?$DO?$AA@ 1007c554     LIBCMT:undname.obj
 0002:0000d558       ??_C@_07FPCDHGMM@?5delete?$AA@ 1007c558     LIBCMT:undname.obj
 0002:0000d560       ??_C@_04NIHEBCM@?5new?$AA@ 1007c560     LIBCMT:undname.obj
 0002:0000d568       ??_C@_0M@GFIIJFMG@__unaligned?$AA@ 1007c568     LIBCMT:undname.obj
 0002:0000d574       ??_C@_0L@PILCLIHE@__restrict?$AA@ 1007c574     LIBCMT:undname.obj
 0002:0000d580       ??_C@_07JOMMBBKO@__ptr64?$AA@ 1007c580     LIBCMT:undname.obj
 0002:0000d588       ??_C@_09HIJEGCPM@__clrcall?$AA@ 1007c588     LIBCMT:undname.obj
 0002:0000d594       ??_C@_0L@JMKHOMEK@__fastcall?$AA@ 1007c594     LIBCMT:undname.obj
 0002:0000d5a0       ??_C@_0L@NPHFGOKO@__thiscall?$AA@ 1007c5a0     LIBCMT:undname.obj
 0002:0000d5ac       ??_C@_09IFJBGAPI@__stdcall?$AA@ 1007c5ac     LIBCMT:undname.obj
 0002:0000d5b8       ??_C@_08GHMPAG@__pascal?$AA@ 1007c5b8     LIBCMT:undname.obj
 0002:0000d5c4       ??_C@_07KOLFKCDI@__cdecl?$AA@ 1007c5c4     LIBCMT:undname.obj
 0002:0000d5cc       ??_C@_08EHJDFFNH@__based?$CI?$AA@ 1007c5cc     LIBCMT:undname.obj
 0002:0000d75c       ??_7DNameNode@@6B@         1007c75c     LIBCMT:undname.obj
 0002:0000d76c       ??_7charNode@@6B@          1007c76c     LIBCMT:undname.obj
 0002:0000d77c       ??_7pDNameNode@@6B@        1007c77c     LIBCMT:undname.obj
 0002:0000d78c       ??_7DNameStatusNode@@6B@   1007c78c     LIBCMT:undname.obj
 0002:0000d79c       ??_7pcharNode@@6B@         1007c79c     LIBCMT:undname.obj
 0002:0000d7a8       ??_C@_04OKOHEJBO@?5?$DP?$DP?5?$AA@ 1007c7a8     LIBCMT:undname.obj
 0002:0000d7b0       ??_C@_06EEGAIFAK@?$HLflat?$HN?$AA@ 1007c7b0     LIBCMT:undname.obj
 0002:0000d7b8       ??_C@_05JIBOFOHK@?$HLfor?5?$AA@ 1007c7b8     LIBCMT:undname.obj
 0002:0000d7c0       ??_C@_0BN@IBLMMFAP@?$GAnon?9type?9template?9parameter?$AA@ 1007c7c0     LIBCMT:undname.obj
 0002:0000d7e0       ??_C@_09EBBEKKIH@unsigned?5?$AA@ 1007c7e0     LIBCMT:undname.obj
 0002:0000d7ec       ??_C@_05CJIMAING@long?5?$AA@ 1007c7ec     LIBCMT:undname.obj
 0002:0000d7f4       ??_C@_04LAHKHJMA@int?5?$AA@ 1007c7f4     LIBCMT:undname.obj
 0002:0000d7fc       ??_C@_06EHJMALKF@short?5?$AA@ 1007c7fc     LIBCMT:undname.obj
 0002:0000d804       ??_C@_05CIHEBHNO@char?5?$AA@ 1007c804     LIBCMT:undname.obj
 0002:0000d80c       ??_C@_04GKJNKENE@void?$AA@ 1007c80c     LIBCMT:undname.obj
 0002:0000d814       ??_C@_0L@EGPHHEKN@?$DMellipsis?$DO?$AA@ 1007c814     LIBCMT:undname.obj
 0002:0000d820       ??_C@_0M@ELJOJFFH@?0?$DMellipsis?$DO?$AA@ 1007c820     LIBCMT:undname.obj
 0002:0000d82c       ??_C@_04EENFHACM@?0?4?4?4?$AA@ 1007c82c     LIBCMT:undname.obj
 0002:0000d834       ??_C@_07HDJPLPEK@?5throw?$CI?$AA@ 1007c834     LIBCMT:undname.obj
 0002:0000d83c       ??_C@_02GOGNNPBN@?$CJ?$FL?$AA@ 1007c83c     LIBCMT:undname.obj
 0002:0000d840       ??_C@_02MDINNEEG@s?5?$AA@  1007c840     LIBCMT:undname.obj
 0002:0000d844       ??_C@_0BE@EODMJLIF@?$GAtemplate?9parameter?$AA@ 1007c844     LIBCMT:undname.obj
 0002:0000d858       ??_C@_01GEODFPGF@?8?$AA@   1007c858     LIBCMT:undname.obj
 0002:0000d85c       ??_C@_04HIBGFPH@NULL?$AA@  1007c85c     LIBCMT:undname.obj
 0002:0000d864       ??_C@_0O@GKABPPIF@cli?3?3pin_ptr?$DM?$AA@ 1007c864     LIBCMT:undname.obj
 0002:0000d874       ??_C@_0M@EALIELKG@cli?3?3array?$DM?$AA@ 1007c874     LIBCMT:undname.obj
 0002:0000d880       ??_C@_05BEFAKPML@void?5?$AA@ 1007c880     LIBCMT:undname.obj
 0002:0000d888       ??_C@_02OHHJMEON@?8?8?$AA@ 1007c888     LIBCMT:undname.obj
 0002:0000d88c       ??_C@_0BG@JNJLAMPM@?$GAanonymous?5namespace?8?$AA@ 1007c88c     LIBCMT:undname.obj
 0002:0000d8a4       ??_C@_01NLNLIGKH@?$GA?$AA@ 1007c8a4     LIBCMT:undname.obj
 0002:0000d8a8       ??_C@_0O@KHGCOMHP@generic?9type?9?$AA@ 1007c8a8     LIBCMT:undname.obj
 0002:0000d8b8       ??_C@_0BE@JAEOCHPE@template?9parameter?9?$AA@ 1007c8b8     LIBCMT:undname.obj
 0002:0000d8cc       ??_C@_02MOLJINC@?3?3?$AA@  1007c8cc     LIBCMT:undname.obj
 0002:0000d8d0       ??_C@_0P@GCIFDJCJ@?$GAunknown?5ecsu?8?$AA@ 1007c8d0     LIBCMT:undname.obj
 0002:0000d8e0       ??_C@_06MOJHIBMG@union?5?$AA@ 1007c8e0     LIBCMT:undname.obj
 0002:0000d8e8       ??_C@_07DIBCDNGL@struct?5?$AA@ 1007c8e8     LIBCMT:undname.obj
 0002:0000d8f0       ??_C@_06LJBABKPM@class?5?$AA@ 1007c8f0     LIBCMT:undname.obj
 0002:0000d8f8       ??_C@_05LJGMCFOG@enum?5?$AA@ 1007c8f8     LIBCMT:undname.obj
 0002:0000d900       ??_C@_08KOFANOFK@coclass?5?$AA@ 1007c900     LIBCMT:undname.obj
 0002:0000d90c       ??_C@_0N@DLIEFKNA@cointerface?5?$AA@ 1007c90c     LIBCMT:undname.obj
 0002:0000d91c       ??_C@_02KCKGHPCA@?$CJ?5?$AA@ 1007c91c     LIBCMT:undname.obj
 0002:0000d920       ??_C@_0M@DHNBOJMP@extern?5?$CCC?$CC?5?$AA@ 1007c920     LIBCMT:undname.obj
 0002:0000d92c       ??_C@_08KJLFOPNE@?$FLthunk?$FN?3?$AA@ 1007c92c     LIBCMT:undname.obj
 0002:0000d938       ??_C@_08GPDDCMKI@public?3?5?$AA@ 1007c938     LIBCMT:undname.obj
 0002:0000d944       ??_C@_0M@GAIFPFIP@protected?3?5?$AA@ 1007c944     LIBCMT:undname.obj
 0002:0000d950       ??_C@_09LAPHOOG@private?3?5?$AA@ 1007c950     LIBCMT:undname.obj
 0002:0000d95c       ??_C@_08NIEOINHE@virtual?5?$AA@ 1007c95c     LIBCMT:undname.obj
 0002:0000d968       ??_C@_07PGOEDBHP@static?5?$AA@ 1007c968     LIBCMT:undname.obj
 0002:0000d970       ??_C@_0DA@HGFJFBBE@?$GAtemplate?5static?5data?5member?5des@ 1007c970     LIBCMT:undname.obj
 0002:0000d9a0       ??_C@_0DB@ILEFOCIJ@?$GAtemplate?5static?5data?5member?5con@ 1007c9a0     LIBCMT:undname.obj
 0002:0000d9d4       ??_C@_0CB@KJDOOODE@?$GAlocal?5static?5destructor?5helper?8@ 1007c9d4     LIBCMT:undname.obj
 0002:0000d9f8       ??_C@_0L@HNGCOGAE@?$GAadjustor?$HL?$AA@ 1007c9f8     LIBCMT:undname.obj
 0002:0000da04       ??_C@_0L@GHPFDFH@?$GAvtordisp?$HL?$AA@ 1007ca04     LIBCMT:undname.obj
 0002:0000da10       ??_C@_0N@CBHHHENL@?$GAvtordispex?$HL?$AA@ 1007ca10     LIBCMT:undname.obj
 0002:0000da20       ??_C@_02IGFCGPIL@?$HN?8?$AA@ 1007ca20     LIBCMT:undname.obj
 0002:0000da24       ??_C@_03OPGICMGF@?$HN?8?5?$AA@ 1007ca24     LIBCMT:undname.obj
 0002:0000da28       ??_C@_06LIJLOJAG@const?5?$AA@ 1007ca28     LIBCMT:undname.obj
 0002:0000da30       ??_C@_09GAIEOBLP@volatile?5?$AA@ 1007ca30     LIBCMT:undname.obj
 0002:0000da3c       ??_C@_04HEJADOOB@CV?3?5?$AA@ 1007ca3c     LIBCMT:undname.obj
 0002:0000da44       ??_C@_08PABEKFH@volatile?$AA@ 1007ca44     LIBCMT:undname.obj
 0002:0000da50       ??_C@_09EFNPDFFP@?5volatile?$AA@ 1007ca50     LIBCMT:undname.obj
 0002:0000da5c       ??_C@_05BNCCCJPP@const?$AA@ 1007ca5c     LIBCMT:undname.obj
 0002:0000da64       ??_C@_07EDHNAJHC@signed?5?$AA@ 1007ca64     LIBCMT:undname.obj
 0002:0000da6c       ??_C@_06BNJCAIGJ@double?$AA@ 1007ca6c     LIBCMT:undname.obj
 0002:0000da74       ??_C@_04DDKJGDCM@bool?$AA@ 1007ca74     LIBCMT:undname.obj
 0002:0000da7c       ??_C@_07CLGGIAMF@wchar_t?$AA@ 1007ca7c     LIBCMT:undname.obj
 0002:0000da84       ??_C@_07NFANNNEC@UNKNOWN?$AA@ 1007ca84     LIBCMT:undname.obj
 0002:0000da8c       ??_C@_08GAHOLHEO@__int128?$AA@ 1007ca8c     LIBCMT:undname.obj
 0002:0000da98       ??_C@_07OFLPPHGP@__int32?$AA@ 1007ca98     LIBCMT:undname.obj
 0002:0000daa0       ??_C@_07LFCOJCAC@__int64?$AA@ 1007caa0     LIBCMT:undname.obj
 0002:0000daa8       ??_C@_07ICFHOGAF@__int16?$AA@ 1007caa8     LIBCMT:undname.obj
 0002:0000dab0       ??_C@_06GCICPBLB@__w64?5?$AA@ 1007cab0     LIBCMT:undname.obj
 0002:0000dab8       ??_C@_06EBGKOKIG@__int8?$AA@ 1007cab8     LIBCMT:undname.obj
 0002:0000dac0       ??_C@_05KNFBNCOH@float?$AA@ 1007cac0     LIBCMT:undname.obj
 0002:0000dac8       ??_C@_04GOKPGOLB@long?$AA@ 1007cac8     LIBCMT:undname.obj
 0002:0000dad0       ??_C@_03JBIPMCLC@int?$AA@  1007cad0     LIBCMT:undname.obj
 0002:0000dad4       ??_C@_05BFKKPKCG@short?$AA@ 1007cad4     LIBCMT:undname.obj
 0002:0000dadc       ??_C@_04ENMBGAPA@char?$AA@ 1007cadc     LIBCMT:undname.obj
 0002:0000dae8       __atan_table               1007cae8     LIBCMT:atan_table.obj
 0002:0000f2f8       ??_C@_0L@KDOEJCKC@_nextafter?$AA@ 1007e2f8     LIBCMT:fpexcept.obj
 0002:0000f304       ??_C@_05JGDBENOH@_logb?$AA@ 1007e304     LIBCMT:fpexcept.obj
 0002:0000f30c       ??_C@_03ONILCKOB@_yn?$AA@  1007e30c     LIBCMT:fpexcept.obj
 0002:0000f310       ??_C@_03NAKIGLHK@_y1?$AA@  1007e310     LIBCMT:fpexcept.obj
 0002:0000f314       ??_C@_03MJLDFKDL@_y0?$AA@  1007e314     LIBCMT:fpexcept.obj
 0002:0000f318       ??_C@_05GKKHEGJL@frexp?$AA@ 1007e318     LIBCMT:fpexcept.obj
 0002:0000f320       ??_C@_04KEPJIHGP@fmod?$AA@ 1007e320     LIBCMT:fpexcept.obj
 0002:0000f328       ??_C@_06MEIMCGCF@_hypot?$AA@ 1007e328     LIBCMT:fpexcept.obj
 0002:0000f330       ??_C@_05KBKMEMPO@_cabs?$AA@ 1007e330     LIBCMT:fpexcept.obj
 0002:0000f338       ??_C@_05CEJMAHNP@ldexp?$AA@ 1007e338     LIBCMT:fpexcept.obj
 0002:0000f340       ??_C@_04ODHECPBC@fabs?$AA@ 1007e340     LIBCMT:fpexcept.obj
 0002:0000f348       ??_C@_04EIAKFFMI@sqrt?$AA@ 1007e348     LIBCMT:fpexcept.obj
 0002:0000f350       ??_C@_05KNGEOGJB@atan2?$AA@ 1007e350     LIBCMT:fpexcept.obj
 0002:0000f358       ??_C@_04FJHINJAO@tanh?$AA@ 1007e358     LIBCMT:fpexcept.obj
 0002:0000f360       ??_C@_04HPJJNFIM@cosh?$AA@ 1007e360     LIBCMT:fpexcept.obj
 0002:0000f368       ??_C@_04COOMCNPB@sinh?$AA@ 1007e368     LIBCMT:fpexcept.obj
 0002:0000f370       ___dnames                  1007e370     LIBCMT:timeset.obj
 0002:0000f388       ___mnames                  1007e388     LIBCMT:timeset.obj
 0002:0000f3b0       ??_C@_02CLFPBFFP@TZ?$AA@   1007e3b0     LIBCMT:tzset.obj
 0002:0000f3b4       ??_C@_0BI@DFKBFLJE@GetProcessWindowStation?$AA@ 1007e3b4     LIBCMT:crtmbox.obj
 0002:0000f3cc       ??_C@_0BK@CIDNPOGP@GetUserObjectInformationA?$AA@ 1007e3cc     LIBCMT:crtmbox.obj
 0002:0000f3e8       ??_C@_0BD@HHGDFDBJ@GetLastActivePopup?$AA@ 1007e3e8     LIBCMT:crtmbox.obj
 0002:0000f3fc       ??_C@_0BA@HNOPNCHB@GetActiveWindow?$AA@ 1007e3fc     LIBCMT:crtmbox.obj
 0002:0000f40c       ??_C@_0M@CHKKJDAI@MessageBoxA?$AA@ 1007e40c     LIBCMT:crtmbox.obj
 0002:0000f418       ??_C@_0L@NDEGIDAG@USER32?4DLL?$AA@ 1007e418     LIBCMT:crtmbox.obj
 0002:0000f424       ??_C@_06IMKFLFPG@1?$CDQNAN?$AA@ 1007e424     LIBCMT:x10fout.obj
 0002:0000f42c       ??_C@_05DNEBIAHO@1?$CDINF?$AA@ 1007e42c     LIBCMT:x10fout.obj
 0002:0000f434       ??_C@_05PHHOCPM@1?$CDIND?$AA@ 1007e434     LIBCMT:x10fout.obj
 0002:0000f43c       ??_C@_06PGGFOGJG@1?$CDSNAN?$AA@ 1007e43c     LIBCMT:x10fout.obj
 0002:0000f444       ??_C@_06GDENEHCP@CONIN$?$AA@ 1007e444     LIBCMT:initcon.obj
 0002:0000f44c       ??_C@_07GPDNMNG@CONOUT$?$AA@ 1007e44c     LIBCMT:initcon.obj
 0002:00011bf8       ??_R4bad_alloc@std@@6B@    10080bf8     dllmain.obj
 0002:00011c10       ??_R3bad_alloc@std@@8      10080c10     dllmain.obj
 0002:00011c24       ??_R2bad_alloc@std@@8      10080c24     dllmain.obj
 0002:00011c30       ??_R1A@?0A@EA@bad_alloc@std@@8 10080c30     dllmain.obj
 0002:00011c54       ??_R1A@?0A@EA@exception@std@@8 10080c54     dllmain.obj
 0002:00011c78       ??_R3exception@std@@8      10080c78     dllmain.obj
 0002:00011c8c       ??_R2exception@std@@8      10080c8c     dllmain.obj
 0002:00011c94       ??_R4facet@locale@std@@6B@ 10080c94     dllmain.obj
 0002:00011cac       ??_R3facet@locale@std@@8   10080cac     dllmain.obj
 0002:00011cc0       ??_R2facet@locale@std@@8   10080cc0     dllmain.obj
 0002:00011cc8       ??_R1A@?0A@EA@facet@locale@std@@8 10080cc8     dllmain.obj
 0002:00011cec       ??_R4codecvt_base@std@@6B@ 10080cec     dllmain.obj
 0002:00011d04       ??_R3codecvt_base@std@@8   10080d04     dllmain.obj
 0002:00011d18       ??_R2codecvt_base@std@@8   10080d18     dllmain.obj
 0002:00011d24       ??_R1A@?0A@EA@codecvt_base@std@@8 10080d24     dllmain.obj
 0002:00011d48       ??_R4ctype_base@std@@6B@   10080d48     dllmain.obj
 0002:00011d60       ??_R3ctype_base@std@@8     10080d60     dllmain.obj
 0002:00011d74       ??_R2ctype_base@std@@8     10080d74     dllmain.obj
 0002:00011d80       ??_R1A@?0A@EA@ctype_base@std@@8 10080d80     dllmain.obj
 0002:00011da4       ??_R4ios_base@std@@6B@     10080da4     dllmain.obj
 0002:00011dbc       ??_R3ios_base@std@@8       10080dbc     dllmain.obj
 0002:00011dd0       ??_R2ios_base@std@@8       10080dd0     dllmain.obj
 0002:00011ddc       ??_R1A@?0A@EA@ios_base@std@@8 10080ddc     dllmain.obj
 0002:00011e00       ??_R13?0A@EA@?$_Iosb@H@std@@8 10080e00     dllmain.obj
 0002:00011e24       ??_R3?$_Iosb@H@std@@8      10080e24     dllmain.obj
 0002:00011e38       ??_R2?$_Iosb@H@std@@8      10080e38     dllmain.obj
 0002:00011e40       ??_R1A@?0A@EA@?$_Iosb@H@std@@8 10080e40     dllmain.obj
 0002:00011e64       ??_R4CRayTest@@6B@         10080e64     dllmain.obj
 0002:00011e7c       ??_R3CRayTest@@8           10080e7c     dllmain.obj
 0002:00011e90       ??_R2CRayTest@@8           10080e90     dllmain.obj
 0002:00011e98       ??_R1A@?0A@EA@CRayTest@@8  10080e98     dllmain.obj
 0002:00011ebc       ??_R4?$basic_ostream@DU?$char_traits@D@std@@@std@@6B@ 10080ebc     dllmain.obj
 0002:00011ed4       ??_R3?$basic_ostream@DU?$char_traits@D@std@@@std@@8 10080ed4     dllmain.obj
 0002:00011ee8       ??_R2?$basic_ostream@DU?$char_traits@D@std@@@std@@8 10080ee8     dllmain.obj
 0002:00011efc       ??_R1A@?0A@EA@?$basic_ostream@DU?$char_traits@D@std@@@std@@8 10080efc     dllmain.obj
 0002:00011f20       ??_R1A@A@3FA@?$basic_ios@DU?$char_traits@D@std@@@std@@8 10080f20     dllmain.obj
 0002:00011f44       ??_R3?$basic_ios@DU?$char_traits@D@std@@@std@@8 10080f44     dllmain.obj
 0002:00011f58       ??_R2?$basic_ios@DU?$char_traits@D@std@@@std@@8 10080f58     dllmain.obj
 0002:00011f68       ??_R1A@?0A@EA@?$basic_ios@DU?$char_traits@D@std@@@std@@8 10080f68     dllmain.obj
 0002:00011f8c       ??_R1A@A@3EA@ios_base@std@@8 10080f8c     dllmain.obj
 0002:00011fb0       ??_R13A@3EA@?$_Iosb@H@std@@8 10080fb0     dllmain.obj
 0002:00011fd4       ??_R4?$basic_ios@DU?$char_traits@D@std@@@std@@6B@ 10080fd4     dllmain.obj
 0002:00011fec       ??_R4?$basic_streambuf@DU?$char_traits@D@std@@@std@@6B@ 10080fec     dllmain.obj
 0002:00012004       ??_R3?$basic_streambuf@DU?$char_traits@D@std@@@std@@8 10081004     dllmain.obj
 0002:00012018       ??_R2?$basic_streambuf@DU?$char_traits@D@std@@@std@@8 10081018     dllmain.obj
 0002:00012020       ??_R1A@?0A@EA@?$basic_streambuf@DU?$char_traits@D@std@@@std@@8 10081020     dllmain.obj
 0002:00012044       ??_R4?$basic_stringbuf@DU?$char_traits@D@std@@V?$allocator@D@2@@std@@6B@ 10081044     dllmain.obj
 0002:0001205c       ??_R3?$basic_stringbuf@DU?$char_traits@D@std@@V?$allocator@D@2@@std@@8 1008105c     dllmain.obj
 0002:00012070       ??_R2?$basic_stringbuf@DU?$char_traits@D@std@@V?$allocator@D@2@@std@@8 10081070     dllmain.obj
 0002:0001207c       ??_R1A@?0A@EA@?$basic_stringbuf@DU?$char_traits@D@std@@V?$allocator@D@2@@std@@8 1008107c     dllmain.obj
 0002:000120a0       ??_R4?$basic_ostringstream@DU?$char_traits@D@std@@V?$allocator@D@2@@std@@6B@ 100810a0     dllmain.obj
 0002:000120b8       ??_R3?$basic_ostringstream@DU?$char_traits@D@std@@V?$allocator@D@2@@std@@8 100810b8     dllmain.obj
 0002:000120cc       ??_R2?$basic_ostringstream@DU?$char_traits@D@std@@V?$allocator@D@2@@std@@8 100810cc     dllmain.obj
 0002:000120e8       ??_R1A@?0A@EA@?$basic_ostringstream@DU?$char_traits@D@std@@V?$allocator@D@2@@std@@8 100810e8     dllmain.obj
 0002:0001210c       ??_R4?$basic_filebuf@DU?$char_traits@D@std@@@std@@6B@ 1008110c     dllmain.obj
 0002:00012124       ??_R3?$basic_filebuf@DU?$char_traits@D@std@@@std@@8 10081124     dllmain.obj
 0002:00012138       ??_R2?$basic_filebuf@DU?$char_traits@D@std@@@std@@8 10081138     dllmain.obj
 0002:00012144       ??_R1A@?0A@EA@?$basic_filebuf@DU?$char_traits@D@std@@@std@@8 10081144     dllmain.obj
 0002:00012168       ??_R4logic_error@std@@6B@  10081168     dllmain.obj
 0002:00012180       ??_R3logic_error@std@@8    10081180     dllmain.obj
 0002:00012194       ??_R2logic_error@std@@8    10081194     dllmain.obj
 0002:000121a0       ??_R1A@?0A@EA@logic_error@std@@8 100811a0     dllmain.obj
 0002:000121c4       ??_R4runtime_error@std@@6B@ 100811c4     dllmain.obj
 0002:000121dc       ??_R3runtime_error@std@@8  100811dc     dllmain.obj
 0002:000121f0       ??_R2runtime_error@std@@8  100811f0     dllmain.obj
 0002:000121fc       ??_R1A@?0A@EA@runtime_error@std@@8 100811fc     dllmain.obj
 0002:00012220       ??_R4length_error@std@@6B@ 10081220     dllmain.obj
 0002:00012238       ??_R3length_error@std@@8   10081238     dllmain.obj
 0002:0001224c       ??_R2length_error@std@@8   1008124c     dllmain.obj
 0002:0001225c       ??_R1A@?0A@EA@length_error@std@@8 1008125c     dllmain.obj
 0002:00012280       ??_R4out_of_range@std@@6B@ 10081280     dllmain.obj
 0002:00012298       ??_R3out_of_range@std@@8   10081298     dllmain.obj
 0002:000122ac       ??_R2out_of_range@std@@8   100812ac     dllmain.obj
 0002:000122bc       ??_R1A@?0A@EA@out_of_range@std@@8 100812bc     dllmain.obj
 0002:000122e0       ??_R4failure@ios_base@std@@6B@ 100812e0     dllmain.obj
 0002:000122f8       ??_R3failure@ios_base@std@@8 100812f8     dllmain.obj
 0002:0001230c       ??_R2failure@ios_base@std@@8 1008130c     dllmain.obj
 0002:0001231c       ??_R1A@?0A@EA@failure@ios_base@std@@8 1008131c     dllmain.obj
 0002:00012340       ??_R4?$ctype@D@std@@6B@    10081340     dllmain.obj
 0002:00012358       ??_R3?$ctype@D@std@@8      10081358     dllmain.obj
 0002:0001236c       ??_R2?$ctype@D@std@@8      1008136c     dllmain.obj
 0002:0001237c       ??_R1A@?0A@EA@?$ctype@D@std@@8 1008137c     dllmain.obj
 0002:000123a0       ??_R4?$num_put@DV?$ostreambuf_iterator@DU?$char_traits@D@std@@@std@@@std@@6B@ 100813a0     dllmain.obj
 0002:000123b8       ??_R3?$num_put@DV?$ostreambuf_iterator@DU?$char_traits@D@std@@@std@@@std@@8 100813b8     dllmain.obj
 0002:000123cc       ??_R2?$num_put@DV?$ostreambuf_iterator@DU?$char_traits@D@std@@@std@@@std@@8 100813cc     dllmain.obj
 0002:000123d8       ??_R1A@?0A@EA@?$num_put@DV?$ostreambuf_iterator@DU?$char_traits@D@std@@@std@@@std@@8 100813d8     dllmain.obj
 0002:000123fc       ??_R4?$codecvt@DDH@std@@6B@ 100813fc     dllmain.obj
 0002:00012414       ??_R3?$codecvt@DDH@std@@8  10081414     dllmain.obj
 0002:00012428       ??_R2?$codecvt@DDH@std@@8  10081428     dllmain.obj
 0002:00012438       ??_R1A@?0A@EA@?$codecvt@DDH@std@@8 10081438     dllmain.obj
 0002:0001245c       ??_R4?$numpunct@D@std@@6B@ 1008145c     dllmain.obj
 0002:00012474       ??_R3?$numpunct@D@std@@8   10081474     dllmain.obj
 0002:00012488       ??_R2?$numpunct@D@std@@8   10081488     dllmain.obj
 0002:00012494       ??_R1A@?0A@EA@?$numpunct@D@std@@8 10081494     dllmain.obj
 0002:000124b8       ??_R4?$basic_ofstream@DU?$char_traits@D@std@@@std@@6B@ 100814b8     dllmain.obj
 0002:000124d0       ??_R3?$basic_ofstream@DU?$char_traits@D@std@@@std@@8 100814d0     dllmain.obj
 0002:000124e4       ??_R2?$basic_ofstream@DU?$char_traits@D@std@@@std@@8 100814e4     dllmain.obj
 0002:00012500       ??_R1A@?0A@EA@?$basic_ofstream@DU?$char_traits@D@std@@@std@@8 10081500     dllmain.obj
 0002:00012524       ??_R4_Locimp@locale@std@@6B@ 10081524     libcpmt:locale0.obj
 0002:00012538       ??_R3_Locimp@locale@std@@8 10081538     libcpmt:locale0.obj
 0002:00012548       ??_R2_Locimp@locale@std@@8 10081548     libcpmt:locale0.obj
 0002:00012554       ??_R1A@?0A@EA@_Locimp@locale@std@@8 10081554     libcpmt:locale0.obj
 0002:00012570       ??_R4invalid_argument@std@@6B@ 10081570     libcpmt:string.obj
 0002:00012584       ??_R3invalid_argument@std@@8 10081584     libcpmt:string.obj
 0002:00012594       ??_R2invalid_argument@std@@8 10081594     libcpmt:string.obj
 0002:000125a4       ??_R1A@?0A@EA@invalid_argument@std@@8 100815a4     libcpmt:string.obj
 0002:000125c0       ??_R4exception@std@@6B@    100815c0     LIBCMT:stdexcpt.obj
 0002:000125d4       ??_R4bad_cast@std@@6B@     100815d4     LIBCMT:stdexcpt.obj
 0002:000125e8       ??_R3bad_cast@std@@8       100815e8     LIBCMT:stdexcpt.obj
 0002:000125f8       ??_R2bad_cast@std@@8       100815f8     LIBCMT:stdexcpt.obj
 0002:00012604       ??_R1A@?0A@EA@bad_cast@std@@8 10081604     LIBCMT:stdexcpt.obj
 0002:00012620       ??_R4bad_typeid@std@@6B@   10081620     LIBCMT:stdexcpt.obj
 0002:00012634       ??_R3bad_typeid@std@@8     10081634     LIBCMT:stdexcpt.obj
 0002:00012644       ??_R2bad_typeid@std@@8     10081644     LIBCMT:stdexcpt.obj
 0002:00012650       ??_R1A@?0A@EA@bad_typeid@std@@8 10081650     LIBCMT:stdexcpt.obj
 0002:0001266c       ??_R4__non_rtti_object@std@@6B@ 1008166c     LIBCMT:stdexcpt.obj
 0002:00012680       ??_R3__non_rtti_object@std@@8 10081680     LIBCMT:stdexcpt.obj
 0002:00012690       ??_R2__non_rtti_object@std@@8 10081690     LIBCMT:stdexcpt.obj
 0002:000126a0       ??_R1A@?0A@EA@__non_rtti_object@std@@8 100816a0     LIBCMT:stdexcpt.obj
 0002:000126bc       ??_R4type_info@@6B@        100816bc     LIBCMT:typinfo.obj
 0002:000126d0       ??_R3type_info@@8          100816d0     LIBCMT:typinfo.obj
 0002:000126e0       ??_R2type_info@@8          100816e0     LIBCMT:typinfo.obj
 0002:000126e8       ??_R1A@?0A@EA@type_info@@8 100816e8     LIBCMT:typinfo.obj
 0002:00012704       ??_R4bad_exception@std@@6B@ 10081704     LIBCMT:frame.obj
 0002:00012718       ??_R3bad_exception@std@@8  10081718     LIBCMT:frame.obj
 0002:00012728       ??_R2bad_exception@std@@8  10081728     LIBCMT:frame.obj
 0002:00012734       ??_R1A@?0A@EA@bad_exception@std@@8 10081734     LIBCMT:frame.obj
 0002:00012750       ??_R4DNameNode@@6B@        10081750     LIBCMT:undname.obj
 0002:00012764       ??_R3DNameNode@@8          10081764     LIBCMT:undname.obj
 0002:00012774       ??_R2DNameNode@@8          10081774     LIBCMT:undname.obj
 0002:0001277c       ??_R1A@?0A@EA@DNameNode@@8 1008177c     LIBCMT:undname.obj
 0002:00012798       ??_R4charNode@@6B@         10081798     LIBCMT:undname.obj
 0002:000127ac       ??_R3charNode@@8           100817ac     LIBCMT:undname.obj
 0002:000127bc       ??_R2charNode@@8           100817bc     LIBCMT:undname.obj
 0002:000127c8       ??_R1A@?0A@EA@charNode@@8  100817c8     LIBCMT:undname.obj
 0002:000127e4       ??_R4pDNameNode@@6B@       100817e4     LIBCMT:undname.obj
 0002:000127f8       ??_R3pDNameNode@@8         100817f8     LIBCMT:undname.obj
 0002:00012808       ??_R2pDNameNode@@8         10081808     LIBCMT:undname.obj
 0002:00012814       ??_R1A@?0A@EA@pDNameNode@@8 10081814     LIBCMT:undname.obj
 0002:00012830       ??_R4DNameStatusNode@@6B@  10081830     LIBCMT:undname.obj
 0002:00012844       ??_R3DNameStatusNode@@8    10081844     LIBCMT:undname.obj
 0002:00012854       ??_R2DNameStatusNode@@8    10081854     LIBCMT:undname.obj
 0002:00012860       ??_R1A@?0A@EA@DNameStatusNode@@8 10081860     LIBCMT:undname.obj
 0002:0001287c       ??_R4pcharNode@@6B@        1008187c     LIBCMT:undname.obj
 0002:00012890       ??_R3pcharNode@@8          10081890     LIBCMT:undname.obj
 0002:000128a0       ??_R2pcharNode@@8          100818a0     LIBCMT:undname.obj
 0002:000128ac       ??_R1A@?0A@EA@pcharNode@@8 100818ac     LIBCMT:undname.obj
 0002:00012ac4       ___rtc_iaa                 10081ac4     LIBCMT:initsect.obj
 0002:00012bc8       ___rtc_izz                 10081bc8     LIBCMT:initsect.obj
 0002:00012ccc       ___rtc_taa                 10081ccc     LIBCMT:initsect.obj
 0002:00012dd0       ___rtc_tzz                 10081dd0     LIBCMT:initsect.obj
 0002:00012ed8       __TI2?AVbad_alloc@std@@    10081ed8     dllmain.obj
 0002:00012eec       __CTA2?AVbad_alloc@std@@   10081eec     dllmain.obj
 0002:00012efc       __CT??_R0?AVbad_alloc@std@@@8??0bad_alloc@std@@QAE@ABV01@@Z12 10081efc     dllmain.obj
 0002:00012f1c       __CT??_R0?AVexception@std@@@8??0exception@std@@QAE@ABV01@@Z12 10081f1c     dllmain.obj
 0002:000131f0       __TI3?AVout_of_range@std@@ 100821f0     dllmain.obj
 0002:00013234       __CTA3?AVout_of_range@std@@ 10082234     dllmain.obj
 0002:00013248       __CT??_R0?AVout_of_range@std@@@8??0out_of_range@std@@QAE@ABV01@@Z40 10082248     dllmain.obj
 0002:00013268       __CT??_R0?AVlogic_error@std@@@8??0logic_error@std@@QAE@ABV01@@Z40 10082268     dllmain.obj
 0002:000132b8       __TI3?AVlength_error@std@@ 100822b8     dllmain.obj
 0002:000132fc       __CTA3?AVlength_error@std@@ 100822fc     dllmain.obj
 0002:00013310       __CT??_R0?AVlength_error@std@@@8??0length_error@std@@QAE@ABV01@@Z40 10082310     dllmain.obj
 0002:00013360       __TI2?AVruntime_error@std@@ 10082360     dllmain.obj
 0002:000133d0       __CTA2?AVruntime_error@std@@ 100823d0     dllmain.obj
 0002:000133e0       __CT??_R0?AVruntime_error@std@@@8??0runtime_error@std@@QAE@ABV01@@Z40 100823e0     dllmain.obj
 0002:00013490       __TI3?AVfailure@ios_base@std@@ 10082490     dllmain.obj
 0002:000134e8       __CTA3?AVfailure@ios_base@std@@ 100824e8     dllmain.obj
 0002:000134fc       __CT??_R0?AVfailure@ios_base@std@@@8??0failure@ios_base@std@@QAE@ABV012@@Z40 100824fc     dllmain.obj
 0002:00013598       __TI2?AVbad_cast@std@@     10082598     dllmain.obj
 0002:000135dc       __CTA2?AVbad_cast@std@@    100825dc     dllmain.obj
 0002:000135ec       __CT??_R0?AVbad_cast@std@@@8??0bad_cast@std@@QAE@ABV01@@Z12 100825ec     dllmain.obj
 0002:0001422c       __TI3?AVinvalid_argument@std@@ 1008322c     libcpmt:string.obj
 0002:00014268       __CTA3?AVinvalid_argument@std@@ 10083268     libcpmt:string.obj
 0002:00014278       __CT??_R0?AVinvalid_argument@std@@@8??0invalid_argument@std@@QAE@ABV01@@Z40 10083278     libcpmt:string.obj
 0002:000146dc       __TI2?AVbad_exception@std@@ 100836dc     LIBCMT:frame.obj
 0002:000146ec       __CTA2?AVbad_exception@std@@ 100836ec     LIBCMT:frame.obj
 0002:000146f8       __CT??_R0?AVbad_exception@std@@@8??0bad_exception@std@@QAE@ABV01@@Z12 100836f8     LIBCMT:frame.obj
 0003:00000004       ?MaxAimAngle@@3MA          10085004     dllmain.obj
 0003:00000008       ?spreadTable@@3PAMA        10085008     dllmain.obj
 0003:00001008       ?MaxAimDistance@@3MA       10086008     dllmain.obj
 0003:0000100c       ?Aimbone@@3HA              1008600c     dllmain.obj
 0003:00001010       ?cCurBone@@3PADA           10086010     dllmain.obj
 0003:00001014       ?AimPrediction@@3MA        10086014     dllmain.obj
 0003:00001018       ?espdist@@3MA              10086018     dllmain.obj
 0003:0000101c       ?item2@@3HA                1008601c     dllmain.obj
 0003:00001020       ?item1@@3HA                10086020     dllmain.obj
 0003:00001024       ?item3@@3HA                10086024     dllmain.obj
 0003:00001028       ?item37@@3HA               10086028     dllmain.obj
 0003:0000102c       ?item10@@3HA               1008602c     dllmain.obj
 0003:00001030       ?item11@@3HA               10086030     dllmain.obj
 0003:00001034       ?item9@@3HA                10086034     dllmain.obj
 0003:00001038       ?item42@@3HA               10086038     dllmain.obj
 0003:0000103c       ?item13@@3HA               1008603c     dllmain.obj
 0003:00001040       ?item16@@3HA               10086040     dllmain.obj
 0003:00001044       ?item17@@3HA               10086044     dllmain.obj
 0003:00001048       ?item21@@3HA               10086048     dllmain.obj
 0003:0000104c       ?item22@@3HA               1008604c     dllmain.obj
 0003:00001050       ?item23@@3HA               10086050     dllmain.obj
 0003:00001054       ?item24@@3HA               10086054     dllmain.obj
 0003:00001058       ?item61@@3HA               10086058     dllmain.obj
 0003:0000105c       ?item26@@3HA               1008605c     dllmain.obj
 0003:00001060       ?item27@@3HA               10086060     dllmain.obj
 0003:00001064       ?item28@@3HA               10086064     dllmain.obj
 0003:00001068       ?item29@@3HA               10086068     dllmain.obj
 0003:0000106c       ?item30@@3HA               1008606c     dllmain.obj
 0003:00001070       ?item31@@3HA               10086070     dllmain.obj
 0003:00001074       ?item32@@3HA               10086074     dllmain.obj
 0003:00001078       ?item33@@3HA               10086078     dllmain.obj
 0003:0000107c       ?item34@@3HA               1008607c     dllmain.obj
 0003:00001080       ?item25@@3HA               10086080     dllmain.obj
 0003:00001084       ?item12@@3HA               10086084     dllmain.obj
 0003:00001088       ?item43@@3HA               10086088     dllmain.obj
 0003:0000108c       ?item36@@3HA               1008608c     dllmain.obj
 0003:00001090       ?item39@@3HA               10086090     dllmain.obj
 0003:00001094       ?item38@@3HA               10086094     dllmain.obj
 0003:00001098       ?item41@@3HA               10086098     dllmain.obj
 0003:0000109c       ?item14@@3HA               1008609c     dllmain.obj
 0003:000010a0       ?item45@@3HA               100860a0     dllmain.obj
 0003:000010a4       ?item4@@3HA                100860a4     dllmain.obj
 0003:000010a8       ?item5@@3HA                100860a8     dllmain.obj
 0003:000010ac       ?item19@@3HA               100860ac     dllmain.obj
 0003:000010b0       ?item20@@3HA               100860b0     dllmain.obj
 0003:000010b4       ?item35@@3HA               100860b4     dllmain.obj
 0003:000010b8       ?item8@@3HA                100860b8     dllmain.obj
 0003:000010bc       ?item6@@3HA                100860bc     dllmain.obj
 0003:000010c0       ?item7@@3HA                100860c0     dllmain.obj
 0003:000010c4       ?item44@@3HA               100860c4     dllmain.obj
 0003:000010c8       ?item15@@3HA               100860c8     dllmain.obj
 0003:000010cc       ?item18@@3HA               100860cc     dllmain.obj
 0003:000010d0       ?item51@@3HA               100860d0     dllmain.obj
 0003:000010d4       ?item52@@3HA               100860d4     dllmain.obj
 0003:000010d8       ?item53@@3HA               100860d8     dllmain.obj
 0003:000010dc       ?item54@@3HA               100860dc     dllmain.obj
 0003:000010e0       ?item55@@3HA               100860e0     dllmain.obj
 0003:000010e4       ?item56@@3HA               100860e4     dllmain.obj
 0003:000010e8       ?item57@@3HA               100860e8     dllmain.obj
 0003:000010ec       ?item58@@3HA               100860ec     dllmain.obj
 0003:000010f0       ?item59@@3HA               100860f0     dllmain.obj
 0003:000010f4       ?item60@@3HA               100860f4     dllmain.obj
 0003:000010f8       ?item71@@3HA               100860f8     dllmain.obj
 0003:000010fc       ?item72@@3HA               100860fc     dllmain.obj
 0003:00001100       ?item73@@3HA               10086100     dllmain.obj
 0003:00001104       ?item74@@3HA               10086104     dllmain.obj
 0003:00001108       ?item75@@3HA               10086108     dllmain.obj
 0003:0000110c       ?item76@@3HA               1008610c     dllmain.obj
 0003:00001110       ?mTitle@@3PADA             10086110     dllmain.obj
 0003:00001114       ?mExtra@@3PADA             10086114     dllmain.obj
 0003:00001118       ?mCredits@@3PADA           10086118     dllmain.obj
 0003:0000111c       ?mHackVersion@@3PADA       1008611c     dllmain.obj
 0003:00001120       ?mBF2Version@@3PADA        10086120     dllmain.obj
 0003:00001124       ?mCursor@@3PADA            10086124     dllmain.obj
 0003:00001128       ?mDescription@@3PADA       10086128     dllmain.obj
 0003:00001228       ?Colors@@3PAPADA           10086228     dllmain.obj
 0003:00001244       ?ClassX@@3PAPADA           10086244     dllmain.obj
 0003:0000125c       ?SpeedX@@3PAPADA           1008625c     dllmain.obj
 0003:0000126c       ?tab1@@3HA                 1008626c     dllmain.obj
 0003:00001270       ?Item71@@3HA               10086270     dllmain.obj
 0003:00001274       ?SpeedModifier@@3MA        10086274     dllmain.obj
 0003:00001278       ?knifedist@@3MA            10086278     dllmain.obj
 0003:0000127c       ?EnemyNearbyDist@@3MA      1008627c     dllmain.obj
 0003:00001280       ?maxdist@@3MA              10086280     dllmain.obj
 0003:00001284       ?vNoSpread@@3MA            10086284     dllmain.obj
 0003:00001288       ?test@@3MA                 10086288     dllmain.obj
 0003:0000128c       ?bInitOnce@@3_NA           1008628c     dllmain.obj
 0003:0000128d       ?bInitFonts@@3_NA          1008628d     dllmain.obj
 0003:0000128e       ?bInitLines@@3_NA          1008628e     dllmain.obj
 0003:0000128f       ?getESdevice@@3_NA         1008628f     dllmain.obj
 0003:00001290       ?getDIPdevice@@3_NA        10086290     dllmain.obj
 0003:00001291       ?CROSSHAIR1@@3EA           10086291     dllmain.obj
 0003:00001292       ?CROSSHAIR2@@3EA           10086292     dllmain.obj
 0003:00001293       ?CROSSHAIR3@@3EA           10086293     dllmain.obj
 0003:00001294       ?AimFOV@@3HA               10086294     dllmain.obj
 0003:00001298       ?HeadSize@@3HA             10086298     dllmain.obj
 0003:0000129c       ?TVID@@3HA                 1008629c     dllmain.obj
 0003:000012a0       ?USMCAttackHeli@@3HA       100862a0     dllmain.obj
 0003:000012a4       ?USMCBuggy@@3HA            100862a4     dllmain.obj
 0003:000012a8       ?USMCTank@@3HA             100862a8     dllmain.obj
 0003:000012ac       ?CHINAAntiAir@@3HA         100862ac     dllmain.obj
 0003:000012b0       ?JEEP@@3HA                 100862b0     dllmain.obj
 0003:000012b4       ?APC@@3HA                  100862b4     dllmain.obj
 0003:000012b8       ?HELI@@3HA                 100862b8     dllmain.obj
 0003:000012bc       ?AA@@3HA                   100862bc     dllmain.obj
 0003:000012c0       ?JET@@3HA                  100862c0     dllmain.obj
 0003:000012c4       ?BOAT@@3HA                 100862c4     dllmain.obj
 0003:000012c8       ?TVGuidedMissile@@3HA      100862c8     dllmain.obj
 0003:000012cc       ?HeatSeeking@@3HA          100862cc     dllmain.obj
 0003:000012d0       ?LaserGuided@@3HA          100862d0     dllmain.obj
 0003:000012d4       ?WireGuided@@3HA           100862d4     dllmain.obj
 0003:000012d8       ?Parabellic@@3HA           100862d8     dllmain.obj
 0003:000012dc       ?Artillery@@3HA            100862dc     dllmain.obj
 0003:000012e0       ?Explosive@@3HA            100862e0     dllmain.obj
 0003:000012e4       ?Sniper@@3HA               100862e4     dllmain.obj
 0003:000012e8       ?Assault@@3HA              100862e8     dllmain.obj
 0003:000012ec       ?Support@@3HA              100862ec     dllmain.obj
 0003:000012f0       ?Engineer@@3HA             100862f0     dllmain.obj
 0003:000012f4       ?Medic@@3HA                100862f4     dllmain.obj
 0003:000012f8       ?AntiTank@@3HA             100862f8     dllmain.obj
 0003:000012fc       ?Sea@@3HA                  100862fc     dllmain.obj
 0003:00001300       ?Air@@3HA                  10086300     dllmain.obj
 0003:00001304       ?Helicopter@@3HA           10086304     dllmain.obj
 0003:00001308       ?NoCategory@@3HA           10086308     dllmain.obj
 0003:0000130c       ?Ladder@@3HA               1008630c     dllmain.obj
 0003:00001310       ?Parachute@@3HA            10086310     dllmain.obj
 0003:00001314       ?PlayerControlObject@@3HA  10086314     dllmain.obj
 0003:00001318       ?AimKey@@3HA               10086318     dllmain.obj
 0003:0000131c       ?JetAimKey@@3HA            1008631c     dllmain.obj
 0003:00001320       ?TVAimKey@@3HA             10086320     dllmain.obj
 0003:00001324       ?restart@@3HA              10086324     dllmain.obj
 0003:00001328       ?xhairselect@@3HA          10086328     dllmain.obj
 0003:0000132c       ?szClassManagerPatt@@3PADA 1008632c     dllmain.obj
 0003:00001341       ?CROSSHAIR4@@3EA           10086341     dllmain.obj
 0003:00001342       ?CROSSHAIR5@@3EA           10086342     dllmain.obj
 0003:00001343       ?CROSSHAIR6@@3EA           10086343     dllmain.obj
 0003:00001344       ?szClassManagerMask@@3PADA 10086344     dllmain.obj
 0003:00001359       ?CROSSHAIR7@@3EA           10086359     dllmain.obj
 0003:0000135a       ?CROSSHAIR8@@3EA           1008635a     dllmain.obj
 0003:0000135b       ?CROSSHAIR9@@3EA           1008635b     dllmain.obj
 0003:0000135c       ?Timestruct@@3PADA         1008635c     dllmain.obj
 0003:0000136c       ?patched_viewdist@@3MA     1008636c     dllmain.obj
 0003:00001370       ?original_viewdist@@3MA    10086370     dllmain.obj
 0003:00001374       ?CROSSHAIR10@@3EA          10086374     dllmain.obj
 0003:00001375       ?CROSSHAIR11@@3EA          10086375     dllmain.obj
 0003:00001376       ?CROSSHAIR12@@3EA          10086376     dllmain.obj
 0003:00001378       ?ShaderAdd@@3PADA          10086378     dllmain.obj
 0003:000013b4       ?userinput@@3V?$basic_string@DU?$char_traits@D@std@@V?$allocator@D@2@@std@@A 100863b4     dllmain.obj
 0003:000013d0       ?akey@@3V?$basic_string@DU?$char_traits@D@std@@V?$allocator@D@2@@std@@A 100863d0     dllmain.obj
 0003:000013ec       ?bkey@@3V?$basic_string@DU?$char_traits@D@std@@V?$allocator@D@2@@std@@A 100863ec     dllmain.obj
 0003:00001408       ?ckey@@3V?$basic_string@DU?$char_traits@D@std@@V?$allocator@D@2@@std@@A 10086408     dllmain.obj
 0003:00001424       ?dkey@@3V?$basic_string@DU?$char_traits@D@std@@V?$allocator@D@2@@std@@A 10086424     dllmain.obj
 0003:00001440       ?ekey@@3V?$basic_string@DU?$char_traits@D@std@@V?$allocator@D@2@@std@@A 10086440     dllmain.obj
 0003:0000145c       ?fkey@@3V?$basic_string@DU?$char_traits@D@std@@V?$allocator@D@2@@std@@A 1008645c     dllmain.obj
 0003:00001478       ?gkey@@3V?$basic_string@DU?$char_traits@D@std@@V?$allocator@D@2@@std@@A 10086478     dllmain.obj
 0003:00001494       ?hkey@@3V?$basic_string@DU?$char_traits@D@std@@V?$allocator@D@2@@std@@A 10086494     dllmain.obj
 0003:000014b0       ?ikey@@3V?$basic_string@DU?$char_traits@D@std@@V?$allocator@D@2@@std@@A 100864b0     dllmain.obj
 0003:000014cc       ?jkey@@3V?$basic_string@DU?$char_traits@D@std@@V?$allocator@D@2@@std@@A 100864cc     dllmain.obj
 0003:000014e8       ?kkey@@3V?$basic_string@DU?$char_traits@D@std@@V?$allocator@D@2@@std@@A 100864e8     dllmain.obj
 0003:00001504       ?lkey@@3V?$basic_string@DU?$char_traits@D@std@@V?$allocator@D@2@@std@@A 10086504     dllmain.obj
 0003:00001520       ?mkey@@3V?$basic_string@DU?$char_traits@D@std@@V?$allocator@D@2@@std@@A 10086520     dllmain.obj
 0003:0000153c       ?nkey@@3V?$basic_string@DU?$char_traits@D@std@@V?$allocator@D@2@@std@@A 1008653c     dllmain.obj
 0003:00001558       ?okey@@3V?$basic_string@DU?$char_traits@D@std@@V?$allocator@D@2@@std@@A 10086558     dllmain.obj
 0003:00001574       ?pkey@@3V?$basic_string@DU?$char_traits@D@std@@V?$allocator@D@2@@std@@A 10086574     dllmain.obj
 0003:00001590       ?qkey@@3V?$basic_string@DU?$char_traits@D@std@@V?$allocator@D@2@@std@@A 10086590     dllmain.obj
 0003:000015ac       ?rkey@@3V?$basic_string@DU?$char_traits@D@std@@V?$allocator@D@2@@std@@A 100865ac     dllmain.obj
 0003:000015c8       ?skey@@3V?$basic_string@DU?$char_traits@D@std@@V?$allocator@D@2@@std@@A 100865c8     dllmain.obj
 0003:000015e4       ?tkey@@3V?$basic_string@DU?$char_traits@D@std@@V?$allocator@D@2@@std@@A 100865e4     dllmain.obj
 0003:00001600       ?ukey@@3V?$basic_string@DU?$char_traits@D@std@@V?$allocator@D@2@@std@@A 10086600     dllmain.obj
 0003:0000161c       ?vkey@@3V?$basic_string@DU?$char_traits@D@std@@V?$allocator@D@2@@std@@A 1008661c     dllmain.obj
 0003:00001638       ?wkey@@3V?$basic_string@DU?$char_traits@D@std@@V?$allocator@D@2@@std@@A 10086638     dllmain.obj
 0003:00001654       ?xkey@@3V?$basic_string@DU?$char_traits@D@std@@V?$allocator@D@2@@std@@A 10086654     dllmain.obj
 0003:00001670       ?ykey@@3V?$basic_string@DU?$char_traits@D@std@@V?$allocator@D@2@@std@@A 10086670     dllmain.obj
 0003:0000168c       ?zkey@@3V?$basic_string@DU?$char_traits@D@std@@V?$allocator@D@2@@std@@A 1008668c     dllmain.obj
 0003:000016a8       ?Akey@@3V?$basic_string@DU?$char_traits@D@std@@V?$allocator@D@2@@std@@A 100866a8     dllmain.obj
 0003:000016c4       ?Bkey@@3V?$basic_string@DU?$char_traits@D@std@@V?$allocator@D@2@@std@@A 100866c4     dllmain.obj
 0003:000016e0       ?Ckey@@3V?$basic_string@DU?$char_traits@D@std@@V?$allocator@D@2@@std@@A 100866e0     dllmain.obj
 0003:000016fc       ?Dkey@@3V?$basic_string@DU?$char_traits@D@std@@V?$allocator@D@2@@std@@A 100866fc     dllmain.obj
 0003:00001718       ?Ekey@@3V?$basic_string@DU?$char_traits@D@std@@V?$allocator@D@2@@std@@A 10086718     dllmain.obj
 0003:00001734       ?Fkey@@3V?$basic_string@DU?$char_traits@D@std@@V?$allocator@D@2@@std@@A 10086734     dllmain.obj
 0003:00001750       ?Gkey@@3V?$basic_string@DU?$char_traits@D@std@@V?$allocator@D@2@@std@@A 10086750     dllmain.obj
 0003:0000176c       ?Hkey@@3V?$basic_string@DU?$char_traits@D@std@@V?$allocator@D@2@@std@@A 1008676c     dllmain.obj
 0003:00001788       ?Ikey@@3V?$basic_string@DU?$char_traits@D@std@@V?$allocator@D@2@@std@@A 10086788     dllmain.obj
 0003:000017a4       ?Jkey@@3V?$basic_string@DU?$char_traits@D@std@@V?$allocator@D@2@@std@@A 100867a4     dllmain.obj
 0003:000017c0       ?Kkey@@3V?$basic_string@DU?$char_traits@D@std@@V?$allocator@D@2@@std@@A 100867c0     dllmain.obj
 0003:000017dc       ?Lkey@@3V?$basic_string@DU?$char_traits@D@std@@V?$allocator@D@2@@std@@A 100867dc     dllmain.obj
 0003:000017f8       ?Mkey@@3V?$basic_string@DU?$char_traits@D@std@@V?$allocator@D@2@@std@@A 100867f8     dllmain.obj
 0003:00001814       ?Nkey@@3V?$basic_string@DU?$char_traits@D@std@@V?$allocator@D@2@@std@@A 10086814     dllmain.obj
 0003:00001830       ?Okey@@3V?$basic_string@DU?$char_traits@D@std@@V?$allocator@D@2@@std@@A 10086830     dllmain.obj
 0003:0000184c       ?Pkey@@3V?$basic_string@DU?$char_traits@D@std@@V?$allocator@D@2@@std@@A 1008684c     dllmain.obj
 0003:00001868       ?Qkey@@3V?$basic_string@DU?$char_traits@D@std@@V?$allocator@D@2@@std@@A 10086868     dllmain.obj
 0003:00001884       ?Rkey@@3V?$basic_string@DU?$char_traits@D@std@@V?$allocator@D@2@@std@@A 10086884     dllmain.obj
 0003:000018a0       ?Skey@@3V?$basic_string@DU?$char_traits@D@std@@V?$allocator@D@2@@std@@A 100868a0     dllmain.obj
 0003:000018bc       ?Tkey@@3V?$basic_string@DU?$char_traits@D@std@@V?$allocator@D@2@@std@@A 100868bc     dllmain.obj
 0003:000018d8       ?Ukey@@3V?$basic_string@DU?$char_traits@D@std@@V?$allocator@D@2@@std@@A 100868d8     dllmain.obj
 0003:000018f4       ?Vkey@@3V?$basic_string@DU?$char_traits@D@std@@V?$allocator@D@2@@std@@A 100868f4     dllmain.obj
 0003:00001910       ?Wkey@@3V?$basic_string@DU?$char_traits@D@std@@V?$allocator@D@2@@std@@A 10086910     dllmain.obj
 0003:0000192c       ?Xkey@@3V?$basic_string@DU?$char_traits@D@std@@V?$allocator@D@2@@std@@A 1008692c     dllmain.obj
 0003:00001948       ?Ykey@@3V?$basic_string@DU?$char_traits@D@std@@V?$allocator@D@2@@std@@A 10086948     dllmain.obj
 0003:00001964       ?Zkey@@3V?$basic_string@DU?$char_traits@D@std@@V?$allocator@D@2@@std@@A 10086964     dllmain.obj
 0003:00001980       ?decimal@@3V?$basic_string@DU?$char_traits@D@std@@V?$allocator@D@2@@std@@A 10086980     dllmain.obj
 0003:0000199c       ?space@@3V?$basic_string@DU?$char_traits@D@std@@V?$allocator@D@2@@std@@A 1008699c     dllmain.obj
 0003:000019b8       ?Command1@@3V?$basic_string@DU?$char_traits@D@std@@V?$allocator@D@2@@std@@A 100869b8     dllmain.obj
 0003:000019d4       ?Command2@@3V?$basic_string@DU?$char_traits@D@std@@V?$allocator@D@2@@std@@A 100869d4     dllmain.obj
 0003:000019f0       ?Command3@@3V?$basic_string@DU?$char_traits@D@std@@V?$allocator@D@2@@std@@A 100869f0     dllmain.obj
 0003:00001a0c       ?Command4@@3V?$basic_string@DU?$char_traits@D@std@@V?$allocator@D@2@@std@@A 10086a0c     dllmain.obj
 0003:00001a28       ?Command5@@3V?$basic_string@DU?$char_traits@D@std@@V?$allocator@D@2@@std@@A 10086a28     dllmain.obj
 0003:00001a44       ?Command6@@3V?$basic_string@DU?$char_traits@D@std@@V?$allocator@D@2@@std@@A 10086a44     dllmain.obj
 0003:00001a60       ?Command7@@3V?$basic_string@DU?$char_traits@D@std@@V?$allocator@D@2@@std@@A 10086a60     dllmain.obj
 0003:00001a7c       ?Command8@@3V?$basic_string@DU?$char_traits@D@std@@V?$allocator@D@2@@std@@A 10086a7c     dllmain.obj
 0003:00001a98       ?Command9@@3V?$basic_string@DU?$char_traits@D@std@@V?$allocator@D@2@@std@@A 10086a98     dllmain.obj
 0003:00001ab4       ?Command10@@3V?$basic_string@DU?$char_traits@D@std@@V?$allocator@D@2@@std@@A 10086ab4     dllmain.obj
 0003:00001ad0       ?Command11@@3V?$basic_string@DU?$char_traits@D@std@@V?$allocator@D@2@@std@@A 10086ad0     dllmain.obj
 0003:00001aec       ?Command12@@3V?$basic_string@DU?$char_traits@D@std@@V?$allocator@D@2@@std@@A 10086aec     dllmain.obj
 0003:00001b08       ?Command13@@3V?$basic_string@DU?$char_traits@D@std@@V?$allocator@D@2@@std@@A 10086b08     dllmain.obj
 0003:00001b24       ?Command14@@3V?$basic_string@DU?$char_traits@D@std@@V?$allocator@D@2@@std@@A 10086b24     dllmain.obj
 0003:00001b40       ?Command15@@3V?$basic_string@DU?$char_traits@D@std@@V?$allocator@D@2@@std@@A 10086b40     dllmain.obj
 0003:00001b5c       ?Command16@@3V?$basic_string@DU?$char_traits@D@std@@V?$allocator@D@2@@std@@A 10086b5c     dllmain.obj
 0003:00001b78       ?Command17@@3V?$basic_string@DU?$char_traits@D@std@@V?$allocator@D@2@@std@@A 10086b78     dllmain.obj
 0003:00001b94       ?Command18@@3V?$basic_string@DU?$char_traits@D@std@@V?$allocator@D@2@@std@@A 10086b94     dllmain.obj
 0003:00001bb0       ?Command19@@3V?$basic_string@DU?$char_traits@D@std@@V?$allocator@D@2@@std@@A 10086bb0     dllmain.obj
 0003:00001bcc       ?Command20@@3V?$basic_string@DU?$char_traits@D@std@@V?$allocator@D@2@@std@@A 10086bcc     dllmain.obj
 0003:00001be8       ?Command21@@3V?$basic_string@DU?$char_traits@D@std@@V?$allocator@D@2@@std@@A 10086be8     dllmain.obj
 0003:00001c04       ?Command22@@3V?$basic_string@DU?$char_traits@D@std@@V?$allocator@D@2@@std@@A 10086c04     dllmain.obj
 0003:00001c20       ?Command23@@3V?$basic_string@DU?$char_traits@D@std@@V?$allocator@D@2@@std@@A 10086c20     dllmain.obj
 0003:00001c3c       ?Command24@@3V?$basic_string@DU?$char_traits@D@std@@V?$allocator@D@2@@std@@A 10086c3c     dllmain.obj
 0003:00001c58       ?Command25@@3V?$basic_string@DU?$char_traits@D@std@@V?$allocator@D@2@@std@@A 10086c58     dllmain.obj
 0003:00001c74       ?Command26@@3V?$basic_string@DU?$char_traits@D@std@@V?$allocator@D@2@@std@@A 10086c74     dllmain.obj
 0003:00001c90       ?Command27@@3V?$basic_string@DU?$char_traits@D@std@@V?$allocator@D@2@@std@@A 10086c90     dllmain.obj
 0003:00001cac       ?Command28@@3V?$basic_string@DU?$char_traits@D@std@@V?$allocator@D@2@@std@@A 10086cac     dllmain.obj
 0003:00001cc8       ?Command29@@3V?$basic_string@DU?$char_traits@D@std@@V?$allocator@D@2@@std@@A 10086cc8     dllmain.obj
 0003:00001ce4       ?ENEMYWARNING@@3V?$basic_string@DU?$char_traits@D@std@@V?$allocator@D@2@@std@@A 10086ce4     dllmain.obj
 0003:00001d00       ?VehHealth@@3V?$basic_string@DU?$char_traits@D@std@@V?$allocator@D@2@@std@@A 10086d00     dllmain.obj
 0003:00001d1c       ?str_class@@3V?$basic_string@DU?$char_traits@D@std@@V?$allocator@D@2@@std@@A 10086d1c     dllmain.obj
 0003:00001d38       ?drawthis@@3V?$basic_string@DU?$char_traits@D@std@@V?$allocator@D@2@@std@@A 10086d38     dllmain.obj
 0003:00001d54       ?pixelx@@3V?$basic_string@DU?$char_traits@D@std@@V?$allocator@D@2@@std@@A 10086d54     dllmain.obj
 0003:00001d70       ?pixely@@3V?$basic_string@DU?$char_traits@D@std@@V?$allocator@D@2@@std@@A 10086d70     dllmain.obj
 0003:00002374       ??_R0?AVbad_alloc@std@@@8  10087374     dllmain.obj
 0003:00002398       ??_R0?AVexception@std@@@8  10087398     dllmain.obj
 0003:000023bc       ??_R0?AVfacet@locale@std@@@8 100873bc     dllmain.obj
 0003:000023e4       ??_R0?AVcodecvt_base@std@@@8 100873e4     dllmain.obj
 0003:0000240c       ??_R0?AUctype_base@std@@@8 1008740c     dllmain.obj
 0003:00002430       ??_R0?AVios_base@std@@@8   10087430     dllmain.obj
 0003:00002450       ??_R0?AV?$_Iosb@H@std@@@8  10087450     dllmain.obj
 0003:00002474       ??_R0?AVCRayTest@@@8       10087474     dllmain.obj
 0003:000024d4       ??_R0?AV?$basic_ostream@DU?$char_traits@D@std@@@std@@@8 100874d4     dllmain.obj
 0003:0000251c       ??_R0?AV?$basic_ios@DU?$char_traits@D@std@@@std@@@8 1008751c     dllmain.obj
 0003:0000255c       ??_R0?AV?$basic_streambuf@DU?$char_traits@D@std@@@std@@@8 1008755c     dllmain.obj
 0003:000025a8       ??_R0?AV?$basic_stringbuf@DU?$char_traits@D@std@@V?$allocator@D@2@@std@@@8 100875a8     dllmain.obj
 0003:00002608       ??_R0?AV?$basic_ostringstream@DU?$char_traits@D@std@@V?$allocator@D@2@@std@@@8 10087608     dllmain.obj
 0003:0000266c       ??_R0?AV?$basic_filebuf@DU?$char_traits@D@std@@@std@@@8 1008766c     dllmain.obj
 0003:000026b4       ??_R0?AVlogic_error@std@@@8 100876b4     dllmain.obj
 0003:000026d8       ??_R0?AVruntime_error@std@@@8 100876d8     dllmain.obj
 0003:00002700       ??_R0?AVlength_error@std@@@8 10087700     dllmain.obj
 0003:00002728       ??_R0?AVout_of_range@std@@@8 10087728     dllmain.obj
 0003:00002750       ??_R0?AVfailure@ios_base@std@@@8 10087750     dllmain.obj
 0003:0000277c       ??_R0?AV?$ctype@D@std@@@8  1008777c     dllmain.obj
 0003:000027a0       ??_R0?AVbad_cast@std@@@8   100877a0     dllmain.obj
 0003:000027c0       ??_R0?AV?$num_put@DV?$ostreambuf_iterator@DU?$char_traits@D@std@@@std@@@std@@@8 100877c0     dllmain.obj
 0003:00002824       ??_R0?AV?$codecvt@DDH@std@@@8 10087824     dllmain.obj
 0003:0000284c       ??_R0?AV?$numpunct@D@std@@@8 1008784c     dllmain.obj
 0003:00002874       ??_R0?AV?$basic_ofstream@DU?$char_traits@D@std@@@std@@@8 10087874     dllmain.obj
 0003:000028c4       ??_R0?AV_Locimp@locale@std@@@8 100878c4     libcpmt:locale0.obj
 0003:000028ec       ?_Sync@ios_base@std@@0_NA  100878ec     libcpmt:ios.obj
 0003:000028f4       ??_R0?AVinvalid_argument@std@@@8 100878f4     libcpmt:string.obj
 0003:00002968       ?_PJP_CPP_Copyright@@3PADA 10087968     libcpmt:iosptrs.obj
 0003:00002a70       ??_R0?AVbad_typeid@std@@@8 10087a70     LIBCMT:stdexcpt.obj
 0003:00002a90       ??_R0?AV__non_rtti_object@std@@@8 10087a90     LIBCMT:stdexcpt.obj
 0003:00002ab8       ??_R0?AVtype_info@@@8      10087ab8     LIBCMT:typinfo.obj
 0003:00002ad0       __fltused                  10087ad0     LIBCMT:fpinit.obj
 0003:00002ad4       __ldused                   10087ad4     LIBCMT:fpinit.obj
 0003:00002b48       ___security_cookie         10087b48     LIBCMT:gs_cookie.obj
 0003:00002b4c       ___security_cookie_complement 10087b4c     LIBCMT:gs_cookie.obj
 0003:00002b54       ?__pMyUnhandledExceptionFilter@@3PAXA 10087b54     LIBCMT:throw.obj
 0003:00002b60       ___lconv_static_decimal    10087b60     LIBCMT:lconv.obj
 0003:00002b64       ___lconv_c                 10087b64     LIBCMT:lconv.obj
 0003:00002b94       ___lconv                   10087b94     LIBCMT:lconv.obj
 0003:00002ba0       __pctype                   10087ba0     LIBCMT:ctype.obj
 0003:00002ba4       __pwctype                  10087ba4     LIBCMT:ctype.obj
 0003:00002d24       __aexit_rtn                10087d24     LIBCMT:crt0dat.obj
 0003:00002d30       ??_R0?AVbad_exception@std@@@8 10087d30     LIBCMT:frame.obj
 0003:00002d50       ___abort_behavior          10087d50     LIBCMT:abort.obj
 0003:00002d60       __NLG_Destination          10087d60     LIBCMT:exsup.obj
 0003:00002d80       __amblksiz                 10087d80     LIBCMT:heapinit.obj
 0003:00002ea8       __cfltcvt_tab              10087ea8     LIBCMT:cmiscdat.obj
 0003:00002ed0       __indefinite               10087ed0     LIBCMT:87disp.obj
 0003:00002eda       __piby2                    10087eda     LIBCMT:87disp.obj
 0003:00002f00       __OP_ATAN2jmptab           10087f00     LIBCMT:87triga.obj
 0003:00002f60       ___nullstring              10087f60     LIBCMT:output.obj
 0003:00002f64       ___wnullstring             10087f64     LIBCMT:output.obj
 0003:00002f68       ___initialmbcinfo          10087f68     LIBCMT:mbctype.obj
 0003:00003188       __mbctype                  10088188     LIBCMT:mbctype.obj
 0003:00003290       __mbcasemap                10088290     LIBCMT:mbctype.obj
 0003:00003390       ___ptmbcinfo               10088390     LIBCMT:mbctype.obj
 0003:00003488       ___globallocalestatus      10088488     LIBCMT:glstatus.obj
 0003:00003490       ___clocalestr              10088490     LIBCMT:nlsdata2.obj
 0003:00003498       ___initiallocinfo          10088498     LIBCMT:nlsdata2.obj
 0003:00003570       ___ptlocinfo               10088570     LIBCMT:nlsdata2.obj
 0003:00003574       ___lc_clike                10088574     LIBCMT:nlsdata2.obj
 0003:00003578       ___initiallocalestructinfo 10088578     LIBCMT:nlsdata2.obj
 0003:00003580       ___flsindex                10088580     LIBCMT:tidtable.obj
 0003:00003584       ___getvalueindex           10088584     LIBCMT:tidtable.obj
 0003:00003590       __iob                      10088590     LIBCMT:_file.obj
 0003:00003810       ___badioinfo               10088810     LIBCMT:ioinit.obj
 0003:00003840       __XcptActTab               10088840     LIBCMT:winxfltr.obj
 0003:000038b8       __First_FPE_Indx           100888b8     LIBCMT:winxfltr.obj
 0003:000038bc       __Num_FPE                  100888bc     LIBCMT:winxfltr.obj
 0003:000038c0       __XcptActTabSize           100888c0     LIBCMT:winxfltr.obj
 0003:000038c4       __XcptActTabCount          100888c4     LIBCMT:winxfltr.obj
 0003:000038d0       ___lc_time_c               100888d0     LIBCMT:strftime.obj
 0003:00003988       ___lc_time_curr            10088988     LIBCMT:strftime.obj
 0003:0000398c       ___mb_cur_max              1008898c     LIBCMT:nlsdata1.obj
 0003:00003990       ___decimal_point           10088990     LIBCMT:nlsdata1.obj
 0003:00003994       ___decimal_point_length    10088994     LIBCMT:nlsdata1.obj
 0003:00003a60       ??_R0?AVDNameNode@@@8      10088a60     LIBCMT:undname.obj
 0003:00003a78       ??_R0?AVcharNode@@@8       10088a78     LIBCMT:undname.obj
 0003:00003a90       ??_R0?AVpDNameNode@@@8     10088a90     LIBCMT:undname.obj
 0003:00003aac       ??_R0?AVDNameStatusNode@@@8 10088aac     LIBCMT:undname.obj
 0003:00003acc       ??_R0?AVpcharNode@@@8      10088acc     LIBCMT:undname.obj
 0003:00003af0       __matherr_flag             10088af0     LIBCMT:matherr.obj
 0003:00003be0       __d_inf                    10088be0     LIBCMT:util.obj
 0003:00003be8       __d_ind                    10088be8     LIBCMT:util.obj
 0003:00003bf0       __d_max                    10088bf0     LIBCMT:util.obj
 0003:00003bf8       __d_min                    10088bf8     LIBCMT:util.obj
 0003:00003c00       __d_mzero                  10088c00     LIBCMT:util.obj
 0003:00003c58       __pow10pos                 10088c58     LIBCMT:constpow.obj
 0003:00003db8       __pow10neg                 10088db8     LIBCMT:constpow.obj
 0003:00003f18       __lookuptrailbytes         10088f18     LIBCMT:read.obj
 0003:00004020       __timezone                 10089020     LIBCMT:timeset.obj
 0003:00004024       __daylight                 10089024     LIBCMT:timeset.obj
 0003:00004028       __dstbias                  10089028     LIBCMT:timeset.obj
 0003:000040b0       __tzname                   100890b0     LIBCMT:timeset.obj
 0003:000040d0       __lpdays                   100890d0     LIBCMT:days.obj
 0003:00004104       __days                     10089104     LIBCMT:days.obj
 0003:00004140       __coninpfh                 10089140     LIBCMT:initcon.obj
 0003:00004144       __confh                    10089144     LIBCMT:initcon.obj
 0003:00004760       ?Cursor@@3UtagPOINT@@A     10089760     dllmain.obj
 0003:00004768       ?lag@@3MA                  10089768     dllmain.obj
 0003:0000476c       ?Red2@@3PAUIDirect3DPixelShader9@@A 1008976c     dllmain.obj
 0003:00004770       ?Blue2@@3PAUIDirect3DPixelShader9@@A 10089770     dllmain.obj
 0003:00004774       ?ResetHookStartAddress@@3KA 10089774     dllmain.obj
 0003:00004778       ?fRealDistance@@3MA        10089778     dllmain.obj
 0003:0000477c       ?pSavedTarget@@3HA         1008977c     dllmain.obj
 0003:00004780       ?Stream_Data@@3PAUIDirect3DVertexBuffer9@@A 10089780     dllmain.obj
 0003:00004784       ?Ballistic@@3_NA           10089784     dllmain.obj
 0003:00004785       ?weapon_high_drop@@3_NA    10089785     dllmain.obj
 0003:00004786       ?grenade@@3_NA             10089786     dllmain.obj
 0003:00004787       ?AimKeyReleased@@3_NA      10089787     dllmain.obj
 0003:00004788       ?aCosY@@3MA                10089788     dllmain.obj
 0003:0000478c       ?aCosX@@3MA                1008978c     dllmain.obj
 0003:00004790       ?negaim@@3MA               10089790     dllmain.obj
 0003:00004794       ?CosY@@3MA                 10089794     dllmain.obj
 0003:00004798       ?ObjectTemplate@@3PAVCTemplate@@A 10089798     dllmain.obj
 0003:0000479c       ?mouseHook@@3PAUHHOOK__@@A 1008979c     dllmain.obj
 0003:000047a0       ?oDrawIndexedPrimitive@@3P6GJPAUIDirect3DDevice9@@W4_D3DPRIMITIVETYPE@@HIIII@ZA 100897a0     dllmain.obj
 0003:000047a4       ?AimAtMe@@3PAVCPlayer@@A   100897a4     dllmain.obj
 0003:000047a8       ?SubHeight@@3MA            100897a8     dllmain.obj
 0003:000047ac       ?hWnd@@3PAUHWND__@@A       100897ac     dllmain.obj
 0003:000047b0       ?AimAngle@@3MA             100897b0     dllmain.obj
 0003:000047b4       ?BulletDelay@@3MA          100897b4     dllmain.obj
 0003:000047b8       ?oPresent@@3P6GXH@ZA       100897b8     dllmain.obj
 0003:000047bc       ?Object@@3PAVCObject@@A    100897bc     dllmain.obj
 0003:000047c0       ?AimButton@@3HA            100897c0     dllmain.obj
 0003:000047c4       ?dwGetViewMatrix@@3PAEA    100897c4     dllmain.obj
 0003:000047c8       ?tpCreateFont@@3P6GJPAUIDirect3DDevice9@@HIIIHKKKKPBDPAUID3DXFont@@@ZA 100897c8     dllmain.obj
 0003:000047cc       ?playerclass@@3HA          100897cc     dllmain.obj
 0003:000047d0       ?pTexture@@3PAUIDirect3DTexture9@@A 100897d0     dllmain.obj
 0003:000047d4       ?ESPColor@@3KA             100897d4     dllmain.obj
 0003:000047d8       ?hr@@3JA                   100897d8     dllmain.obj
 0003:000047dc       ?projectile_speed@@3MA     100897dc     dllmain.obj
 0003:000047e0       ?WeaponTemplate@@3PAVCTemplate@@A 100897e0     dllmain.obj
 0003:000047e4       ?dwGetActionBuffer@@3KA    100897e4     dllmain.obj
 0003:000047e8       ?aimY@@3MA                 100897e8     dllmain.obj
 0003:000047ec       ?iLag@@3MA                 100897ec     dllmain.obj
 0003:000047f0       ?Orange2@@3PAUIDirect3DPixelShader9@@A 100897f0     dllmain.obj
 0003:000047f4       ?oBeginScene@@3P6GJPAUIDirect3DDevice9@@@ZA 100897f4     dllmain.obj
 0003:000047f8       ?AimDistance@@3MA          100897f8     dllmain.obj
 0003:000047fc       ?Soldier@@3PAVCSoldier@@A  100897fc     dllmain.obj
 0003:00004800       ?CosX@@3MA                 10089800     dllmain.obj
 0003:00004804       ?bullet_drop@@3MA          10089804     dllmain.obj
 0003:00004808       ?posaim@@3MA               10089808     dllmain.obj
 0003:0000480c       ?ResetHookEndAddress@@3KA  1008980c     dllmain.obj
 0003:00004810       ?aCosZ@@3MA                10089810     dllmain.obj
 0003:00004814       ?AngleLength@@3MA          10089814     dllmain.obj
 0003:00004818       ?Text@@3PADA               10089818     dllmain.obj
 0003:00004868       ?tHealth@@3MA              10089868     dllmain.obj
 0003:0000486c       ?Distance@@3MA             1008986c     dllmain.obj
 0003:00004870       ?Trans2@@3PAUIDirect3DPixelShader9@@A 10089870     dllmain.obj
 0003:00004874       ?AddLeft@@3MA              10089874     dllmain.obj
 0003:00004878       ?oRenderScreen@@3P6GXPAX00@ZA 10089878     dllmain.obj
 0003:0000487c       ?movedy@@3MA               1008987c     dllmain.obj
 0003:00004880       ?radaron@@3HA              10089880     dllmain.obj
 0003:00004884       ?projectile_damage@@3MA    10089884     dllmain.obj
 0003:00004888       ?oDrawOverlay@@3P6GXXZA    10089888     dllmain.obj
 0003:0000488c       ?FocusedWindow@@3PAUHWND__@@A 1008988c     dllmain.obj
 0003:00004890       ?TimeToImpact@@3MA         10089890     dllmain.obj
 0003:00004894       ?pms@@3MA                  10089894     dllmain.obj
 0003:00004898       ?CurrentProcess@@3PAUHWND__@@A 10089898     dllmain.obj
 0003:0000489c       ?angle_x@@3MA              1008989c     dllmain.obj
 0003:000048a0       ?AddHeight@@3MA            100898a0     dllmain.obj
 0003:000048a4       ?BEST_ID@@3HA              100898a4     dllmain.obj
 0003:000048a8       ?GravityMultiplier@@3MA    100898a8     dllmain.obj
 0003:000048ac       ?DirectInput8Create@@3P6GJPAUHINSTANCE__@@KABU_GUID@@PAXPAUIUnknown@@@ZA 100898ac     dllmain.obj
 0003:000048b0       ?cp@@3HA                   100898b0     dllmain.obj
 0003:000048b4       ?GravityMultiply@@3PADA    100898b4     dllmain.obj
 0003:000048bc       ?AddWidth@@3MA             100898bc     dllmain.obj
 0003:000048c0       ?mousey@@3MA               100898c0     dllmain.obj
 0003:000048c4       ?m_OriginalMatrix@@3PAUD3DXMATRIX@@A 100898c4     dllmain.obj
 0003:000048c8       ?buffthis@@3HA             100898c8     dllmain.obj
 0003:000048cc       ?TimeString@@3PADA         100898cc     dllmain.obj
 0003:000048e5       ?weapon_high_damage@@3_NA  100898e5     dllmain.obj
 0003:000048e6       ?weapon_explosive@@3_NA    100898e6     dllmain.obj
 0003:000048e7       ?bGetLocalPlayer@@3_NA     100898e7     dllmain.obj
 0003:000048e8       ?fPlayerDirection@@3MA     100898e8     dllmain.obj
 0003:000048ec       ?Vehicle@@3PAVCObject@@A   100898ec     dllmain.obj
 0003:000048f0       ?nospread@@3HA             100898f0     dllmain.obj
 0003:000048f4       ?DebugID@@3HA              100898f4     dllmain.obj
 0003:000048f8       ?retTarget@@3PAVCPlayer@@A 100898f8     dllmain.obj
 0003:000048fc       ?sa@@3Ushaders@@A          100898fc     dllmain.obj
 0003:0000492c       ?Teal2@@3PAUIDirect3DPixelShader9@@A 1008992c     dllmain.obj
 0003:00004930       ?control@@3PAVCControlMap@@A 10089930     dllmain.obj
 0003:00004934       ?tmpObject@@3PAVCObject@@A 10089934     dllmain.obj
 0003:00004938       ?playerviewmatrix@@3PAUD3DXMATRIX@@A 10089938     dllmain.obj
 0003:0000493c       ?pGameDevice@@3PAUIDirect3DDevice9@@A 1008993c     dllmain.obj
 0003:00004940       ?tvDistanceY@@3MA          10089940     dllmain.obj
 0003:00004944       ?showdebug@@3HA            10089944     dllmain.obj
 0003:00004948       ?menuLine@@3PAUID3DXLine@@A 10089948     dllmain.obj
 0003:0000494c       ?cp2@@3HA                  1008994c     dllmain.obj
 0003:00004950       ?aimX@@3MA                 10089950     dllmain.obj
 0003:00004954       ?Weapon@@3PAVCWeapon@@A    10089954     dllmain.obj
 0003:00004958       ?bullet_delay@@3MA         10089958     dllmain.obj
 0003:0000495c       ?DebugHP@@3MA              1008995c     dllmain.obj
 0003:00004960       ?ResetEndReturn@@3KA       10089960     dllmain.obj
 0003:00004964       ?dwWorldToScreen@@3KA      10089964     dllmain.obj
 0003:00004968       ?targetid@@3HA             10089968     dllmain.obj
 0003:0000496c       ?ttl@@3MA                  1008996c     dllmain.obj
 0003:00004970       ?CosZ@@3MA                 10089970     dllmain.obj
 0003:00004974       ?skeletonLine@@3PAUID3DXLine@@A 10089974     dllmain.obj
 0003:00004978       ?boxLine@@3PAUID3DXLine@@A 10089978     dllmain.obj
 0003:0000497c       ?HudDist@@3MA              1008997c     dllmain.obj
 0003:00004980       ?tvLength@@3MA             10089980     dllmain.obj
 0003:00004984       ?AmmoTemplate@@3PAVCTemplate_GenericProjectile@@A 10089984     dllmain.obj
 0003:00004988       ?pActionBuffer@@3KA        10089988     dllmain.obj
 0003:0000498c       ?dwGetPlayerView@@3KA      1008998c     dllmain.obj
 0003:00004990       ?flAspect@@3MA             10089990     dllmain.obj
 0003:00004994       ?pLine@@3PAUID3DXLine@@A   10089994     dllmain.obj
 0003:00004998       ?mousex@@3MA               10089998     dllmain.obj
 0003:0000499c       ?tmpType@@3HA              1008999c     dllmain.obj
 0003:000049a0       ?Yellow2@@3PAUIDirect3DPixelShader9@@A 100899a0     dllmain.obj
 0003:000049a4       ?TVaimZ@@3MA               100899a4     dllmain.obj
 0003:000049a8       ?Purple2@@3PAUIDirect3DPixelShader9@@A 100899a8     dllmain.obj
 0003:000049ac       ?aimZ@@3MA                 100899ac     dllmain.obj
 0003:000049b0       ?PlayerViewMatrix@@3PAUD3DXMATRIX@@A 100899b0     dllmain.obj
 0003:000049b4       ?xLine@@3PAUID3DXLine@@A   100899b4     dllmain.obj
 0003:000049b8       ?oReset@@3P6GJPAUIDirect3DDevice9@@PAU_D3DPRESENT_PARAMETERS_@@@ZA 100899b8     dllmain.obj
 0003:000049bc       ?angle_y@@3MA              100899bc     dllmain.obj
 0003:000049c0       ?HudMousePos@@3MA          100899c0     dllmain.obj
 0003:000049c4       ?MissileFired@@3_NA        100899c4     dllmain.obj
 0003:000049c5       ?Time@@3_NA                100899c5     dllmain.obj
 0003:000049c8       ?tvDistanceX@@3MA          100899c8     dllmain.obj
 0003:000049cc       ?fYawDegreeDifference@@3MA 100899cc     dllmain.obj
 0003:000049d0       ?drawaimfov@@3HA           100899d0     dllmain.obj
 0003:000049d4       ?pDirect3DDevice@@3PAUIDirect3D9@@A 100899d4     dllmain.obj
 0003:000049d8       ?WTSystem@@3HA             100899d8     dllmain.obj
 0003:000049dc       ?snapLine@@3PAUID3DXLine@@A 100899dc     dllmain.obj
 0003:000049e0       ?Pink2@@3PAUIDirect3DPixelShader9@@A 100899e0     dllmain.obj
 0003:000049e4       ?TVaimY@@3MA               100899e4     dllmain.obj
 0003:000049e8       ?InputBuffer@@3PAMA        100899e8     dllmain.obj
 0003:00004ae8       ?pOrigGWTPID@@3P6GKPAUHWND__@@PAK@ZA 10089ae8     dllmain.obj
 0003:00004aec       ?bullet_gravity@@3MA       10089aec     dllmain.obj
 0003:00004af0       ?ResetStartReturn@@3KA     10089af0     dllmain.obj
 0003:00004af4       ?vHealth@@3MA              10089af4     dllmain.obj
 0003:00004af8       ?Damage@@3MA               10089af8     dllmain.obj
 0003:00004afc       ?TAimbone@@3HA             10089afc     dllmain.obj
 0003:00004b00       ?Green2@@3PAUIDirect3DPixelShader9@@A 10089b00     dllmain.obj
 0003:00004b04       ?oEndScene@@3P6GJPAUIDirect3DDevice9@@@ZA 10089b04     dllmain.obj
 0003:00004b08       ?movedx@@3MA               10089b08     dllmain.obj
 0003:00004b0c       ?TVaimX@@3MA               10089b0c     dllmain.obj
 0003:00004b10       ?circleLine@@3PAUID3DXLine@@A 10089b10     dllmain.obj
 0003:00004b14       ?D3DBaseVTable@@3KA        10089b14     dllmain.obj
 0003:00004b18       ?Test@@3PADA               10089b18     dllmain.obj
 0003:00004b1c       ?cTools@@3PAVtools@@A      10089b1c     dllmain.obj
 0003:00004b20       ?Viewport@@3U_D3DVIEWPORT9@@A 10089b20     dllmain.obj
 0003:00004b38       ?PlayerWeaponMatrix@@3PAUD3DXMATRIX@@A 10089b38     dllmain.obj
 0003:00004b3c       ?fPlayerDistance@@3MA      10089b3c     dllmain.obj
 0003:00004b40       ?TemplateID@@3HA           10089b40     dllmain.obj
 0003:00004b44       ?VehCategory@@3HA          10089b44     dllmain.obj
 0003:00004b48       ?pdwNewGameDevice@@3PAKA   10089b48     dllmain.obj
 0003:00004b4c       ?m_PresentParam@@3U_D3DPRESENT_PARAMETERS_@@A 10089b4c     dllmain.obj
 0003:00004b84       ?SPRITE_TEX@@3PAUIDirect3DTexture9@@A 10089b84     dllmain.obj
 0003:00004b88       ?dwOriginalCOWFunctionOffset@@3KA 10089b88     dllmain.obj
 0003:00004b8c       ?AimPredict@@3PADA         10089b8c     dllmain.obj
 0003:00004b94       ?gClassManager@@3PAVCClassManager@@A 10089b94     dllmain.obj
 0003:00004b98       ?gProfileManager@@3PAVCProfileManager@@A 10089b98     dllmain.obj
 0003:00004b9c       ?gMainConsole@@3PAVCMainConsole@@A 10089b9c     dllmain.obj
 0003:00004ba0       ?gControlMapManager@@3PAVCControlMapManager@@A 10089ba0     dllmain.obj
 0003:00004ba4       ?gControlMap@@3PAVCControlMap@@A 10089ba4     dllmain.obj
 0003:00004ba8       ?gPlayerManager@@3PAVCPlayerManager@@A 10089ba8     dllmain.obj
 0003:00004bac       ?gPlayer@@3PAVCPlayer@@A   10089bac     dllmain.obj
 0003:00004bb0       ?gInfo@@3PAVCInfo@@A       10089bb0     dllmain.obj
 0003:00004bb4       ?gObject@@3PAVCObject@@A   10089bb4     dllmain.obj
 0003:00004bb8       ?gHealth@@3PAVCHealth@@A   10089bb8     dllmain.obj
 0003:00004bbc       ?gLocalProfileManager@@3PAVCLocalProfileManager@@A 10089bbc     dllmain.obj
 0003:00004bc0       ?gTemplate@@3PAVCTemplate@@A 10089bc0     dllmain.obj
 0003:00004bc4       ?gPhysics@@3PAVCPhysics@@A 10089bc4     dllmain.obj
 0003:00004bc8       ?gPhysicsManager@@3PAVCPhysicsManager@@A 10089bc8     dllmain.obj
 0003:00004bcc       ?gMaterialManager@@3PAVCMaterialManager@@A 10089bcc     dllmain.obj
 0003:00004bd0       ?gCamera@@3PAVCCamera@@A   10089bd0     dllmain.obj
 0003:00004bd4       ?gSoldierPtr@@3PAVCSoldierPtr@@A 10089bd4     dllmain.obj
 0003:00004bd8       ?gSoldier@@3PAVCSoldier@@A 10089bd8     dllmain.obj
 0003:00004bdc       ?gWeapon@@3PAVCWeapon@@A   10089bdc     dllmain.obj
 0003:00004be0       ?gDeviation@@3PAVCDeviation@@A 10089be0     dllmain.obj
 0003:00004be4       ?gSkeleton@@3PAVCSkeleton@@A 10089be4     dllmain.obj
 0003:00004be8       ?gBone@@3PAVCBone@@A       10089be8     dllmain.obj
 0003:00004bec       ?gRenderer@@3PAVCRenderer@@A 10089bec     dllmain.obj
 0003:00004bf0       ?gGlobalSettings@@3PAVCGlobalSettings@@A 10089bf0     dllmain.obj
 0003:00004bf4       ?gHudManager@@3PAVCHudManager@@A 10089bf4     dllmain.obj
 0003:00004bf8       ?gHudMouse@@3PAVCHudMouse@@A 10089bf8     dllmain.obj
 0003:00004bfc       ?gActionBuffer@@3PAVCActionBuffer@@A 10089bfc     dllmain.obj
 0003:00004c00       ?gInputDeviceManager@@3PAVCInputDeviceManager@@A 10089c00     dllmain.obj
 0003:00004c04       ?gInputManager@@3PAVCInputManager@@A 10089c04     dllmain.obj
 0003:00004c08       ?gObjectManager@@3PAVCObjectManager@@A 10089c08     dllmain.obj
 0003:00004c0c       ?gPostProductionFramework@@3PAVCPostProductionFrameWork@@A 10089c0c     dllmain.obj
 0003:00004c10       ?gRayTest@@3PAVCRayTest@@A 10089c10     dllmain.obj
 0003:00004c14       ?gDebugLineDrawer@@3PAVCDebugLineDrawer@@A 10089c14     dllmain.obj
 0003:00004c18       ?gDebugTextWriter@@3PAVCDebugTextWriter@@A 10089c18     dllmain.obj
 0003:00004c1c       ?gMiniMap@@3PAVCMiniMap@@A 10089c1c     dllmain.obj
 0003:00004c20       ?gPostProductionFrameWork@@3PAVCPostProductionFrameWork@@A 10089c20     dllmain.obj
 0003:00004c24       ?bWriteConfig@@3_NA        10089c24     dllmain.obj
 0003:00004c25       ?Scroll@@3_NA              10089c25     dllmain.obj
 0003:00004c26       ?TargetLocked@@3_NA        10089c26     dllmain.obj
 0003:00004c27       ?bGrabbedVP@@3_NA          10089c27     dllmain.obj
 0003:00004c28       ?pFont@@3PAUID3DXFont@@A   10089c28     dllmain.obj
 0003:00004c2c       ?WarningFont@@3PAUID3DXFont@@A 10089c2c     dllmain.obj
 0003:00004c30       ?WatermarkFont@@3PAUID3DXFont@@A 10089c30     dllmain.obj
 0003:00004c34       ?tab2@@3HA                 10089c34     dllmain.obj
 0003:00004c38       ?tab3@@3HA                 10089c38     dllmain.obj
 0003:00004c3c       ?tab4@@3HA                 10089c3c     dllmain.obj
 0003:00004c40       ?tab5@@3HA                 10089c40     dllmain.obj
 0003:00004c44       ?tab6@@3HA                 10089c44     dllmain.obj
 0003:00004c48       ?tab7@@3HA                 10089c48     dllmain.obj
 0003:00004c4c       ?Item1@@3HA                10089c4c     dllmain.obj
 0003:00004c50       ?Item2@@3HA                10089c50     dllmain.obj
 0003:00004c54       ?Item3@@3HA                10089c54     dllmain.obj
 0003:00004c58       ?Item37@@3HA               10089c58     dllmain.obj
 0003:00004c5c       ?Item10@@3HA               10089c5c     dllmain.obj
 0003:00004c60       ?Item11@@3HA               10089c60     dllmain.obj
 0003:00004c64       ?Item9@@3HA                10089c64     dllmain.obj
 0003:00004c68       ?Item42@@3HA               10089c68     dllmain.obj
 0003:00004c6c       ?Item13@@3HA               10089c6c     dllmain.obj
 0003:00004c70       ?Item16@@3HA               10089c70     dllmain.obj
 0003:00004c74       ?Item17@@3HA               10089c74     dllmain.obj
 0003:00004c78       ?Item21@@3HA               10089c78     dllmain.obj
 0003:00004c7c       ?Item22@@3HA               10089c7c     dllmain.obj
 0003:00004c80       ?Item23@@3HA               10089c80     dllmain.obj
 0003:00004c84       ?Item24@@3HA               10089c84     dllmain.obj
 0003:00004c88       ?Item61@@3HA               10089c88     dllmain.obj
 0003:00004c8c       ?Item26@@3HA               10089c8c     dllmain.obj
 0003:00004c90       ?Item27@@3HA               10089c90     dllmain.obj
 0003:00004c94       ?Item28@@3HA               10089c94     dllmain.obj
 0003:00004c98       ?Item29@@3HA               10089c98     dllmain.obj
 0003:00004c9c       ?Item30@@3HA               10089c9c     dllmain.obj
 0003:00004ca0       ?Item31@@3HA               10089ca0     dllmain.obj
 0003:00004ca4       ?Item32@@3HA               10089ca4     dllmain.obj
 0003:00004ca8       ?Item33@@3HA               10089ca8     dllmain.obj
 0003:00004cac       ?Item34@@3HA               10089cac     dllmain.obj
 0003:00004cb0       ?Item25@@3HA               10089cb0     dllmain.obj
 0003:00004cb4       ?Item12@@3HA               10089cb4     dllmain.obj
 0003:00004cb8       ?Item43@@3HA               10089cb8     dllmain.obj
 0003:00004cbc       ?Item36@@3HA               10089cbc     dllmain.obj
 0003:00004cc0       ?Item39@@3HA               10089cc0     dllmain.obj
 0003:00004cc4       ?Item38@@3HA               10089cc4     dllmain.obj
 0003:00004cc8       ?Item40@@3HA               10089cc8     dllmain.obj
 0003:00004ccc       ?Item41@@3HA               10089ccc     dllmain.obj
 0003:00004cd0       ?Item14@@3HA               10089cd0     dllmain.obj
 0003:00004cd4       ?Item45@@3HA               10089cd4     dllmain.obj
 0003:00004cd8       ?Item4@@3HA                10089cd8     dllmain.obj
 0003:00004cdc       ?Item5@@3HA                10089cdc     dllmain.obj
 0003:00004ce0       ?Item19@@3HA               10089ce0     dllmain.obj
 0003:00004ce4       ?Item20@@3HA               10089ce4     dllmain.obj
 0003:00004ce8       ?Item35@@3HA               10089ce8     dllmain.obj
 0003:00004cec       ?Item8@@3HA                10089cec     dllmain.obj
 0003:00004cf0       ?Item6@@3HA                10089cf0     dllmain.obj
 0003:00004cf4       ?Item7@@3HA                10089cf4     dllmain.obj
 0003:00004cf8       ?Item44@@3HA               10089cf8     dllmain.obj
 0003:00004cfc       ?Item15@@3HA               10089cfc     dllmain.obj
 0003:00004d00       ?Item18@@3HA               10089d00     dllmain.obj
 0003:00004d04       ?Item51@@3HA               10089d04     dllmain.obj
 0003:00004d08       ?Item52@@3HA               10089d08     dllmain.obj
 0003:00004d0c       ?Item53@@3HA               10089d0c     dllmain.obj
 0003:00004d10       ?Item54@@3HA               10089d10     dllmain.obj
 0003:00004d14       ?Item55@@3HA               10089d14     dllmain.obj
 0003:00004d18       ?Item56@@3HA               10089d18     dllmain.obj
 0003:00004d1c       ?Item57@@3HA               10089d1c     dllmain.obj
 0003:00004d20       ?Item58@@3HA               10089d20     dllmain.obj
 0003:00004d24       ?Item59@@3HA               10089d24     dllmain.obj
 0003:00004d28       ?Item60@@3HA               10089d28     dllmain.obj
 0003:00004d2c       ?Item72@@3HA               10089d2c     dllmain.obj
 0003:00004d30       ?Item73@@3HA               10089d30     dllmain.obj
 0003:00004d34       ?Item74@@3HA               10089d34     dllmain.obj
 0003:00004d38       ?Item75@@3HA               10089d38     dllmain.obj
 0003:00004d3c       ?Position@@3HA             10089d3c     dllmain.obj
 0003:00004d40       ?ScrollVal@@3HA            10089d40     dllmain.obj
 0003:00004d44       ?CurrentCorrection@@3MA    10089d44     dllmain.obj
 0003:00004d48       ?LastFrameAimKey@@3_NA     10089d48     dllmain.obj
 0003:00004d49       ?bAntiShake@@3_NA          10089d49     dllmain.obj
 0003:00004d4a       ?bNoSpread@@3_NA           10089d4a     dllmain.obj
 0003:00004d4b       ?AimKeyPressed@@3_NA       10089d4b     dllmain.obj
 0003:00004d4c       ?bHookView@@3_NA           10089d4c     dllmain.obj
 0003:00004d4d       ?bHookObjectWrapper@@3_NA  10089d4d     dllmain.obj
 0003:00004d4e       ?hooked@@3_NA              10089d4e     dllmain.obj
 0003:00004d4f       ?xokay@@3_NA               10089d4f     dllmain.obj
 0003:00004d50       ?Activated@@3_NA           10089d50     dllmain.obj
 0003:00004d51       ?bReset@@3_NA              10089d51     dllmain.obj
 0003:00004d52       ?d3dReset@@3_NA            10089d52     dllmain.obj
 0003:00004d53       ?TargetAngle@@3_NA         10089d53     dllmain.obj
 0003:00004d54       ?DrawMenu@@3_NA            10089d54     dllmain.obj
 0003:00004d55       ?ViewDistance@@3_NA        10089d55     dllmain.obj
 0003:00004d56       ?bBPanel@@3_NA             10089d56     dllmain.obj
 0003:00004d57       ?AsusWallhack@@3_NA        10089d57     dllmain.obj
 0003:00004d58       ?VTable@@3PAKA             10089d58     dllmain.obj
 0003:00004d74       ?dwRendBase@@3KA           10089d74     dllmain.obj
 0003:00004d78       ?dwBF2Base@@3KA            10089d78     dllmain.obj
 0003:00004d7c       ?dwD3D9Base@@3KA           10089d7c     dllmain.obj
 0003:00004d80       ?dwD3D925Base@@3PAUHINSTANCE__@@A 10089d80     dllmain.obj
 0003:00004d84       ?hand@@3PAXA               10089d84     dllmain.obj
 0003:00004d88       ?mousedown@@3HA            10089d88     dllmain.obj
 0003:00004d8c       ?DrawDebugStuff@@3HA       10089d8c     dllmain.obj
 0003:00004d90       ?debugmode@@3HA            10089d90     dllmain.obj
 0003:00004d94       ?getonce@@3HA              10089d94     dllmain.obj
 0003:00004d98       ?TANK@@3HA                 10089d98     dllmain.obj
 0003:00004d9c       ?NoTargetSystem@@3HA       10089d9c     dllmain.obj
 0003:00004da0       ?SpecOps@@3HA              10089da0     dllmain.obj
 0003:00004da4       ?Land@@3HA                 10089da4     dllmain.obj
 0003:00004da8       ?showmenu@@3HA             10089da8     dllmain.obj
 0003:00004dac       ?Stick2Target@@3HA         10089dac     dllmain.obj
 0003:00004db0       ?Stick2Player@@3HA         10089db0     dllmain.obj
 0003:00004db4       ?autoswitchtargets@@3HA    10089db4     dllmain.obj
 0003:00004db8       ?fullautoaim@@3HA          10089db8     dllmain.obj
 0003:00004dbc       ?getviewmatrixaddress@@3HA 10089dbc     dllmain.obj
 0003:00004dc0       ?AutoStabPeople@@3HA       10089dc0     dllmain.obj
 0003:00004dc4       ?original_team@@3HA        10089dc4     dllmain.obj
 0003:00004dc8       ?autoshoot@@3HA            10089dc8     dllmain.obj
 0003:00004dcc       ?locktarget@@3HA           10089dcc     dllmain.obj
 0003:00004dd0       ?remfog@@3HA               10089dd0     dllmain.obj
 0003:00004dd4       ?remtv@@3HA                10089dd4     dllmain.obj
 0003:00004dd8       ?drawmm@@3HA               10089dd8     dllmain.obj
 0003:00004ddc       ?unlockwep@@3HA            10089ddc     dllmain.obj
 0003:00004de0       ?TVSavedTarget@@3HA        10089de0     dllmain.obj
 0003:00004de4       ?aimmode@@3HA              10089de4     dllmain.obj
 0003:00004de8       ?newaimmode@@3HA           10089de8     dllmain.obj
 0003:00004dec       ?done_0@@3HA               10089dec     dllmain.obj
 0003:00004df0       ?done_6@@3HA               10089df0     dllmain.obj
 0003:00004df4       ?done_1@@3HA               10089df4     dllmain.obj
 0003:00004df8       ?done_2@@3HA               10089df8     dllmain.obj
 0003:00004dfc       ?done_3@@3HA               10089dfc     dllmain.obj
 0003:00004e00       ?done_4@@3HA               10089e00     dllmain.obj
 0003:00004e04       ?done_5@@3HA               10089e04     dllmain.obj
 0003:00004e08       ?done_7@@3HA               10089e08     dllmain.obj
 0003:00004e0c       ?done_8@@3HA               10089e0c     dllmain.obj
 0003:00004e10       ?done_9@@3HA               10089e10     dllmain.obj
 0003:00004e14       ?Offset@@3IA               10089e14     dllmain.obj
 0003:00004e18       ?targetPlayer@@3PAVCPlayer@@A 10089e18     dllmain.obj
 0003:00004e1c       ?BestTarget@@3PAVCPlayer@@A 10089e1c     dllmain.obj
 0003:00004e20       ?Target@@3PAVCPlayer@@A    10089e20     dllmain.obj
 0003:00004e24       ?TargetPlayer@@3PAVCPlayer@@A 10089e24     dllmain.obj
 0003:00004e28       ?pRet@@3PAVCPlayer@@A      10089e28     dllmain.obj
 0003:00004e2c       ?TVTarget@@3PAVCPlayer@@A  10089e2c     dllmain.obj
 0003:00004e30       ?KnifeTarget@@3PAVCPlayer@@A 10089e30     dllmain.obj
 0003:00004e34       ?Primitive@@3PAUIDirect3DTexture9@@A 10089e34     dllmain.obj
 0003:00004e38       ?pSprite@@3PAUID3DXSprite@@A 10089e38     dllmain.obj
 0003:00004e3c       ?g_uiStride@@3IA           10089e3c     dllmain.obj
 0003:00004e40       ?TexRed@@3PAUIDirect3DTexture9@@A 10089e40     dllmain.obj
 0003:00004e44       ?TexYellow@@3PAUIDirect3DTexture9@@A 10089e44     dllmain.obj
 0003:00004e48       ?TexGreen@@3PAUIDirect3DTexture9@@A 10089e48     dllmain.obj
 0003:00004e4c       ?TexBlue@@3PAUIDirect3DTexture9@@A 10089e4c     dllmain.obj
 0003:00004e50       ?TexPink@@3PAUIDirect3DTexture9@@A 10089e50     dllmain.obj
 0003:00004e54       ?TexPurple@@3PAUIDirect3DTexture9@@A 10089e54     dllmain.obj
 0003:00004e58       ?TexOrange@@3PAUIDirect3DTexture9@@A 10089e58     dllmain.obj
 0003:00004e5c       ?TexLB@@3PAUIDirect3DTexture9@@A 10089e5c     dllmain.obj
 0003:00004e60       ?target_velocity_vec@@3UD3DXVECTOR3@@A 10089e60     dllmain.obj
 0003:00004e6c       ?WepMatrixZ@@3UD3DXVECTOR3@@A 10089e6c     dllmain.obj
 0003:00004e78       ?ObjPos@@3UD3DXVECTOR3@@A  10089e78     dllmain.obj
 0003:00004e84       ?lVMX@@3UD3DXVECTOR3@@A    10089e84     dllmain.obj
 0003:00004e90       ?LocalPos@@3UD3DXVECTOR3@@A 10089e90     dllmain.obj
 0003:00004e9c       ?vPos@@3UD3DXVECTOR3@@A    10089e9c     dllmain.obj
 0003:00004ea8       ?TempMatrix@@3UD3DXMATRIX@@A 10089ea8     dllmain.obj
 0003:00004ee8       ?GetAimRight@@3UD3DXVECTOR3@@A 10089ee8     dllmain.obj
 0003:00004ef4       ?viewAxis@@3PAUD3DXVECTOR3@@A 10089ef4     dllmain.obj
 0003:00004f18       ?ENEMYCLOSEBY@@3PBDB       10089f18     dllmain.obj
 0003:00004f1c       ?vMyHeadPosition@@3UD3DXVECTOR3@@A 10089f1c     dllmain.obj
 0003:00004f28       ?SnapLineVec@@3PAUD3DXVECTOR2@@A 10089f28     dllmain.obj
 0003:00004f38       ?aimanglefov@@3UD3DXVECTOR3@@A 10089f38     dllmain.obj
 0003:00004f44       ?aimtarget@@3UD3DXVECTOR3@@A 10089f44     dllmain.obj
 0003:00004f50       ?vOutput@@3UD3DXVECTOR3@@A 10089f50     dllmain.obj
 0003:00004f5c       ?EnemyPos@@3UD3DXVECTOR3@@A 10089f5c     dllmain.obj
 0003:00004f68       ?objectMap@@3V?$map@PAVCObject@@HU?$less@PAVCObject@@@std@@V?$allocator@U?$pair@QAVCObject@@H@std@@@3@@std@@A 10089f68     dllmain.obj
 0003:00004f74       ?ViewMatrixX@@3UD3DXVECTOR3@@A 10089f74     dllmain.obj
 0003:00004f80       ?g_NoShake_m@@3UD3DXMATRIX@@A 10089f80     dllmain.obj
 0003:00004fc0       ?FilledBoxVec@@3PAUD3DXVECTOR2@@A 10089fc0     dllmain.obj
 0003:00004fd0       ?AimDist@@3UD3DXVECTOR3@@A 10089fd0     dllmain.obj
 0003:00004fdc       ?VMY@@3UD3DXVECTOR3@@A     10089fdc     dllmain.obj
 0003:00004fe8       ?LineVec@@3PAUD3DXVECTOR2@@A 10089fe8     dllmain.obj
 0003:00004ff8       ?EnemyW2SPos@@3UD3DXVECTOR3@@A 10089ff8     dllmain.obj
 0003:00005004       ?lVMZ@@3UD3DXVECTOR3@@A    1008a004     dllmain.obj
 0003:00005010       ?TVMY@@3UD3DXVECTOR3@@A    1008a010     dllmain.obj
 0003:0000501c       ?vAimVec@@3UD3DXVECTOR3@@A 1008a01c     dllmain.obj
 0003:00005028       ?LocalW2SVec3@@3UD3DXVECTOR3@@A 1008a028     dllmain.obj
 0003:00005034       ?SkeletonVec@@3PAUD3DXVECTOR2@@A 1008a034     dllmain.obj
 0003:00005044       ?VMZ@@3UD3DXVECTOR3@@A     1008a044     dllmain.obj
 0003:00005050       ?ViewMatrixY@@3UD3DXVECTOR3@@A 1008a050     dllmain.obj
 0003:0000505c       ?vTargetAngles@@3UD3DXVECTOR3@@A 1008a05c     dllmain.obj
 0003:00005068       ?DebugLog@@3V?$basic_ofstream@DU?$char_traits@D@std@@@std@@A 1008a068     dllmain.obj
 0003:000050f0       ?ViewMatrix@@3UD3DXVECTOR3@@A 1008a0f0     dllmain.obj
 0003:000050fc       ?ViewMatrixZ@@3UD3DXVECTOR3@@A 1008a0fc     dllmain.obj
 0003:00005108       ?PlayerSpeed@@3UD3DXVECTOR3@@A 1008a108     dllmain.obj
 0003:00005114       ?v3TempVec@@3UD3DXVECTOR3@@A 1008a114     dllmain.obj
 0003:00005120       ?AimVec@@3UD3DXVECTOR3@@A  1008a120     dllmain.obj
 0003:0000512c       ?vMyMatrix@@3PAUD3DXVECTOR3@@A 1008a12c     dllmain.obj
 0003:0000515c       ?GetAimUp@@3UD3DXVECTOR3@@A 1008a15c     dllmain.obj
 0003:00005168       ?GetAimDir@@3UD3DXVECTOR3@@A 1008a168     dllmain.obj
 0003:00005174       ?vAimNormalize@@3UD3DXVECTOR3@@A 1008a174     dllmain.obj
 0003:00005180       ?EnemyW2SVec3@@3UD3DXVECTOR3@@A 1008a180     dllmain.obj
 0003:0000518c       ?CircleVec@@3PAUD3DXVECTOR2@@A 1008a18c     dllmain.obj
 0003:0000519c       ?vTargetPosition@@3UD3DXVECTOR3@@A 1008a19c     dllmain.obj
 0003:000051a8       ?iniReader@@3VCIniReader@@A 1008a1a8     dllmain.obj
 0003:000052a8       ?pMenu@@3Vmenu@@A          1008a2a8     dllmain.obj
 0003:000052b8       ?BoxVec@@3PAUD3DXVECTOR2@@A 1008a2b8     dllmain.obj
 0003:000052c8       ?m_ModifiedMatrix@@3UD3DXMATRIX@@A 1008a2c8     dllmain.obj
 0003:00005308       ?ESPCOLOR@@3UD3DXCOLOR@@A  1008a308     dllmain.obj
 0003:00005318       ?AimSpot@@3UD3DXVECTOR3@@A 1008a318     dllmain.obj
 0003:00005324       ?TVMZ@@3UD3DXVECTOR3@@A    1008a324     dllmain.obj
 0003:00005330       ?VMX@@3UD3DXVECTOR3@@A     1008a330     dllmain.obj
 0003:0000533c       ?WepMatrixX@@3UD3DXVECTOR3@@A 1008a33c     dllmain.obj
 0003:00005348       ?XHairVec@@3PAUD3DXVECTOR2@@A 1008a348     dllmain.obj
 0003:00005358       ?WepMatrixY@@3UD3DXVECTOR3@@A 1008a358     dllmain.obj
 0003:00005364       ?TVMX@@3UD3DXVECTOR3@@A    1008a364     dllmain.obj
 0003:00005370       ?VecDistance@@3UD3DXVECTOR3@@A 1008a370     dllmain.obj
 0003:0000537c       ?lORIGIN@@3UD3DXVECTOR3@@A 1008a37c     dllmain.obj
 0003:00005388       ?LogFile@@3V?$basic_ofstream@DU?$char_traits@D@std@@@std@@A 1008a388     dllmain.obj
 0003:00005410       ?iniWriter@@3VCIniWriter@@A 1008a410     dllmain.obj
 0003:00005510       ?WepMatrix@@3UD3DXVECTOR3@@A 1008a510     dllmain.obj
 0003:0000551c       ?Draw@@3VCDraw@@A          1008a51c     dllmain.obj
 0003:00005558       ?lVMY@@3UD3DXVECTOR3@@A    1008a558     dllmain.obj
 0003:00005564       ?tPlayerPosition@@3UD3DXVECTOR3@@A 1008a564     dllmain.obj
 0003:00005d24       ?_Stinit@?1??_Init@?$basic_filebuf@DU?$char_traits@D@std@@@std@@IAEXPAU_iobuf@@W4_Initfl@23@@Z@4HA 1008ad24     dllmain.obj
 0003:00005d28       ?_Psave@?$_Facetptr@V?$ctype@D@std@@@std@@2PBVfacet@locale@2@B 1008ad28     dllmain.obj
 0003:00005d2c       ?_Psave@?$_Facetptr@V?$num_put@DV?$ostreambuf_iterator@DU?$char_traits@D@std@@@std@@@std@@@std@@2PBVfacet@locale@2@B 1008ad2c     dllmain.obj
 0003:00005d30       ?_Psave@?$_Facetptr@V?$codecvt@DDH@std@@@std@@2PBVfacet@locale@2@B 1008ad30     dllmain.obj
 0003:00005d34       ?_Psave@?$_Facetptr@V?$numpunct@D@std@@@std@@2PBVfacet@locale@2@B 1008ad34     dllmain.obj
 0003:00005d38       ?id@?$num_put@DV?$ostreambuf_iterator@DU?$char_traits@D@std@@@std@@@std@@2V0locale@2@A 1008ad38     dllmain.obj
 0003:00005d3c       ?id@?$numpunct@D@std@@2V0locale@2@A 1008ad3c     dllmain.obj
 0003:00005d40       ?id@?$codecvt@DDH@std@@2V0locale@2@A 1008ad40     dllmain.obj
 0003:00005db4       ?_Clocptr@_Locimp@locale@std@@0PAV123@A 1008adb4     libcpmt:locale0.obj
 0003:00005db8       ?_Id_cnt@id@locale@std@@0HA 1008adb8     libcpmt:locale0.obj
 0003:00005dbc       ?id@?$ctype@D@std@@2V0locale@2@A 1008adbc     libcpmt:locale0.obj
 0003:00005dc0       ?id@?$codecvt@GDH@std@@2V0locale@2@A 1008adc0     libcpmt:locale0.obj
 0003:00005dc4       ?id@?$ctype@_W@std@@2V0locale@2@A 1008adc4     libcpmt:locale0.obj
 0003:00005dc8       ?id@?$codecvt@_WDH@std@@2V0locale@2@A 1008adc8     libcpmt:locale0.obj
 0003:00005dd0       ?id@?$ctype@G@std@@2V0locale@2@A 1008add0     libcpmt:locale0.obj
 0003:00005dd8       ?_Fpz@std@@3_JA            1008add8     libcpmt:ios.obj
 0003:00005de0       ?_Index@ios_base@std@@0HA  1008ade0     libcpmt:ios.obj
 0003:00005f10       ?_Ptr_cin@std@@3PAV?$basic_istream@DU?$char_traits@D@std@@@1@A 1008af10     libcpmt:iosptrs.obj
 0003:00005f14       ?_Ptr_cout@std@@3PAV?$basic_ostream@DU?$char_traits@D@std@@@1@A 1008af14     libcpmt:iosptrs.obj
 0003:00005f18       ?_Ptr_cerr@std@@3PAV?$basic_ostream@DU?$char_traits@D@std@@@1@A 1008af18     libcpmt:iosptrs.obj
 0003:00005f1c       ?_Ptr_clog@std@@3PAV?$basic_ostream@DU?$char_traits@D@std@@@1@A 1008af1c     libcpmt:iosptrs.obj
 0003:00005f20       ?_Ptr_wcin@std@@3PAV?$basic_istream@_WU?$char_traits@_W@std@@@1@A 1008af20     libcpmt:iosptrs.obj
 0003:00005f24       ?_Ptr_wcout@std@@3PAV?$basic_ostream@_WU?$char_traits@_W@std@@@1@A 1008af24     libcpmt:iosptrs.obj
 0003:00005f28       ?_Ptr_wcerr@std@@3PAV?$basic_ostream@_WU?$char_traits@_W@std@@@1@A 1008af28     libcpmt:iosptrs.obj
 0003:00005f2c       ?_Ptr_wclog@std@@3PAV?$basic_ostream@_WU?$char_traits@_W@std@@@1@A 1008af2c     libcpmt:iosptrs.obj
 0003:00005f88       ___fastflag                1008af88     LIBCMT:fpinit.obj
 0003:00005f8c       __adjust_fdiv              1008af8c     LIBCMT:fpinit.obj
 0003:00005f90       ___pInvalidArgHandler      1008af90     LIBCMT:invarg.obj
 0003:00005fa4       ___lconv_static_null       1008afa4     LIBCMT:lconv.obj
 0003:00005fac       __aenvptr                  1008afac     LIBCMT:dllcrt0.obj
 0003:00005fb0       __wenvptr                  1008afb0     LIBCMT:dllcrt0.obj
 0003:00005fb4       ___error_mode              1008afb4     LIBCMT:dllcrt0.obj
 0003:00005fb8       ___app_type                1008afb8     LIBCMT:dllcrt0.obj
 0003:00005fc0       __maxwait                  1008afc0     LIBCMT:crtheap.obj
 0003:00005fc4       ___locale_changed          1008afc4     LIBCMT:setlocal.obj
 0003:00005fc8       __umaskval                 1008afc8     LIBCMT:crt0dat.obj
 0003:00005fcc       __osplatform               1008afcc     LIBCMT:crt0dat.obj
 0003:00005fd0       __osver                    1008afd0     LIBCMT:crt0dat.obj
 0003:00005fd4       __winver                   1008afd4     LIBCMT:crt0dat.obj
 0003:00005fd8       __winmajor                 1008afd8     LIBCMT:crt0dat.obj
 0003:00005fdc       __winminor                 1008afdc     LIBCMT:crt0dat.obj
 0003:00005fe0       ___argc                    1008afe0     LIBCMT:crt0dat.obj
 0003:00005fe4       ___argv                    1008afe4     LIBCMT:crt0dat.obj
 0003:00005fe8       ___wargv                   1008afe8     LIBCMT:crt0dat.obj
 0003:00005fec       __environ                  1008afec     LIBCMT:crt0dat.obj
 0003:00005ff0       ___initenv                 1008aff0     LIBCMT:crt0dat.obj
 0003:00005ff4       __wenviron                 1008aff4     LIBCMT:crt0dat.obj
 0003:00005ff8       ___winitenv                1008aff8     LIBCMT:crt0dat.obj
 0003:00005ffc       __pgmptr                   1008affc     LIBCMT:crt0dat.obj
 0003:00006000       __wpgmptr                  1008b000     LIBCMT:crt0dat.obj
 0003:00006004       __exitflag                 1008b004     LIBCMT:crt0dat.obj
 0003:00006008       __C_Termination_Done       1008b008     LIBCMT:crt0dat.obj
 0003:0000600c       __C_Exit_Done              1008b00c     LIBCMT:crt0dat.obj
 0003:00006018       __crtheap                  1008b018     LIBCMT:heapinit.obj
 0003:00006170       ___sbh_pHeaderDefer        1008b170     LIBCMT:sbheap.obj
 0003:000064a0       ___mbulinfo                1008b4a0     LIBCMT:mbctype.obj
 0003:000064ac       ___mbcodepage              1008b4ac     LIBCMT:mbctype.obj
 0003:000064b0       ___ismbcodepage            1008b4b0     LIBCMT:mbctype.obj
 0003:000064b4       ___mblcid                  1008b4b4     LIBCMT:mbctype.obj
 0003:000064b8       ___lc_handle               1008b4b8     LIBCMT:nlsdata2.obj
 0003:000064d0       ___lc_codepage             1008b4d0     LIBCMT:nlsdata2.obj
 0003:000064d4       ___lc_collate_cp           1008b4d4     LIBCMT:nlsdata2.obj
 0003:000064d8       _gpFlsAlloc                1008b4d8     LIBCMT:tidtable.obj
 0003:000064dc       _gpFlsGetValue             1008b4dc     LIBCMT:tidtable.obj
 0003:000064e0       _gpFlsSetValue             1008b4e0     LIBCMT:tidtable.obj
 0003:000064e4       _gpFlsFree                 1008b4e4     LIBCMT:tidtable.obj
 0003:000064e8       ?_pnhHeap@@3P6AHI@ZA       1008b4e8     LIBCMT:handler.obj
 0003:000064f4       ?__pInconsistency@@3P6AXXZA 1008b4f4     LIBCMT:hooks.obj
 0003:000064f8       __cflush                   1008b4f8     LIBCMT:_file.obj
 0003:00006618       ___pPurecall               1008b618     LIBCMT:inithelp.obj
 0003:00006a74       __newmode                  1008ba74     LIBCMT:_newmode.obj
 0003:00006a8c       ?pArgList@UnDecorator@@0PAVReplicator@@A 1008ba8c     LIBCMT:undname.obj
 0003:00006a90       ?pZNameList@UnDecorator@@0PAVReplicator@@A 1008ba90     LIBCMT:undname.obj
 0003:00006a94       ?pTemplateArgList@UnDecorator@@0PAVReplicator@@A 1008ba94     LIBCMT:undname.obj
 0003:00006a98       ?gName@UnDecorator@@0PBDB  1008ba98     LIBCMT:undname.obj
 0003:00006a9c       ?name@UnDecorator@@0PBDB   1008ba9c     LIBCMT:undname.obj
 0003:00006aa0       ?outputString@UnDecorator@@0PADA 1008baa0     LIBCMT:undname.obj
 0003:00006aa4       ?maxStringLength@UnDecorator@@0HA 1008baa4     LIBCMT:undname.obj
 0003:00006aa8       ?disableFlags@UnDecorator@@0KA 1008baa8     LIBCMT:undname.obj
 0003:00006aac       ?m_pGetParameter@UnDecorator@@0P6APADJ@ZA 1008baac     LIBCMT:undname.obj
 0003:00006ab0       ?fExplicitTemplateParams@UnDecorator@@0_NA 1008bab0     LIBCMT:undname.obj
 0003:00006ab1       ?fGetTemplateArgumentList@UnDecorator@@0_NA 1008bab1     LIBCMT:undname.obj
 0003:00006ab4       __outputformat             1008bab4     LIBCMT:outputformat.obj
 0003:00006b80       __commode                  1008bb80     LIBCMT:ncommode.obj
 0003:00006b98       __stdbuf                   1008bb98     LIBCMT:_sftbuf.obj
 0003:00006ba4       __fmode                    1008bba4     LIBCMT:txtmode.obj
 0003:00006bb0       __nhandle                  1008bbb0     <common>
 0003:00006c00       ___pioinfo                 1008bc00     <common>
 0003:00006d00       ___piob                    1008bd00     <common>
 0003:00007040       __bufin                    1008c040     <common>
 0003:00008040       __nstream                  1008d040     <common>
 0003:00008044       __debugger_hook_dummy      1008d044     <common>
 0003:00008050       __pmatherr                 1008d050     <common>
 0003:0000805c       ___sbh_initialized         1008d05c     <common>
 0003:00008070       ___sbh_cntHeaderList       1008d070     <common>
 0003:00008074       ___sbh_pHeaderList         1008d074     <common>
 0003:00008078       ___sbh_threshold           1008d078     <common>
 0003:0000807c       ___sbh_pHeaderScan         1008d07c     <common>
 0003:00008080       ___sbh_sizeHeaderList      1008d080     <common>
 0003:00008084       ___sbh_indGroupDefer       1008d084     <common>
 0003:00008088       ___active_heap             1008d088     <common>
 0003:00008094       ___use_sse2_mathfcns       1008d094     <common>
 0003:000080a4       ___sse2_available          1008d0a4     <common>
 0003:000080a8       ___env_initialized         1008d0a8     <common>
 0003:000080b8       ___onexitend               1008d0b8     <common>
 0003:000080bc       ___onexitbegin             1008d0bc     <common>
 0003:000080c0       ___mbctype_initialized     1008d0c0     <common>
 0003:000080c4       ___dyn_tls_init_callback   1008d0c4     <common>
 0003:000080c8       ___setlc_active            1008d0c8     <common>
 0003:000080d8       ___unguarded_readlc_active 1008d0d8     <common>
 0003:000080dc       __acmdln                   1008d0dc     <common>
 0004:00000000       __IMPORT_DESCRIPTOR_KERNEL32 1008e000     kernel32:KERNEL32.dll
 0004:00000014       __IMPORT_DESCRIPTOR_d3dx9_43 1008e014     d3dx9:d3dx9_43.dll
 0004:00000028       __IMPORT_DESCRIPTOR_d3d9   1008e028     d3d9:d3d9.dll
 0004:0000003c       __IMPORT_DESCRIPTOR_USER32 1008e03c     user32:USER32.dll
 0004:00000050       __IMPORT_DESCRIPTOR_DINPUT8 1008e050     dinput8:DINPUT8.dll
 0004:00000064       __NULL_IMPORT_DESCRIPTOR   1008e064     kernel32:KERNEL32.dll
 0004:0000039c       __imp__DirectInput8Create@20 1008e39c     dinput8:DINPUT8.dll
 0004:000003a0       \177DINPUT8_NULL_THUNK_DATA 1008e3a0     dinput8:DINPUT8.dll
 0004:000003cc       __imp__GetModuleHandleA@4  1008e3cc     kernel32:KERNEL32.dll
 0004:000003d0       __imp__GetProcAddress@8    1008e3d0     kernel32:KERNEL32.dll
 0004:000003d4       __imp__VirtualProtectEx@20 1008e3d4     kernel32:KERNEL32.dll
 0004:000003d8       __imp__GetCurrentProcess@0 1008e3d8     kernel32:KERNEL32.dll
 0004:000003dc       __imp__IsBadReadPtr@8      1008e3dc     kernel32:KERNEL32.dll
 0004:000003e0       __imp__CloseHandle@4       1008e3e0     kernel32:KERNEL32.dll
 0004:000003e4       __imp__Module32Next@8      1008e3e4     kernel32:KERNEL32.dll
 0004:000003e8       __imp__Module32First@8     1008e3e8     kernel32:KERNEL32.dll
 0004:000003ec       __imp__Sleep@4             1008e3ec     kernel32:KERNEL32.dll
 0004:000003f0       __imp__GetPrivateProfileIntA@16 1008e3f0     kernel32:KERNEL32.dll
 0004:000003f4       __imp__GetPrivateProfileStringA@24 1008e3f4     kernel32:KERNEL32.dll
 0004:000003f8       __imp__WritePrivateProfileStringA@16 1008e3f8     kernel32:KERNEL32.dll
 0004:000003fc       __imp__GetProcessId@4      1008e3fc     kernel32:KERNEL32.dll
 0004:00000400       __imp__GetTimeFormatA@24   1008e400     kernel32:KERNEL32.dll
 0004:00000404       __imp__CreateThread@24     1008e404     kernel32:KERNEL32.dll
 0004:00000408       __imp__LoadLibraryA@4      1008e408     kernel32:KERNEL32.dll
 0004:0000040c       __imp__CreateToolhelp32Snapshot@8 1008e40c     kernel32:KERNEL32.dll
 0004:00000410       __imp__SetEnvironmentVariableA@8 1008e410     kernel32:KERNEL32.dll
 0004:00000414       __imp__CompareStringW@24   1008e414     kernel32:KERNEL32.dll
 0004:00000418       __imp__CompareStringA@24   1008e418     kernel32:KERNEL32.dll
 0004:0000041c       __imp__SetEndOfFile@4      1008e41c     kernel32:KERNEL32.dll
 0004:00000420       __imp__CreateFileW@28      1008e420     kernel32:KERNEL32.dll
 0004:00000424       __imp__CreateFileA@28      1008e424     kernel32:KERNEL32.dll
 0004:00000428       __imp__GetTimeZoneInformation@4 1008e428     kernel32:KERNEL32.dll
 0004:0000042c       __imp__GetLocaleInfoW@16   1008e42c     kernel32:KERNEL32.dll
 0004:00000430       __imp__SetStdHandle@8      1008e430     kernel32:KERNEL32.dll
 0004:00000434       __imp__WriteConsoleW@20    1008e434     kernel32:KERNEL32.dll
 0004:00000438       __imp__GetConsoleOutputCP@0 1008e438     kernel32:KERNEL32.dll
 0004:0000043c       __imp__WriteConsoleA@20    1008e43c     kernel32:KERNEL32.dll
 0004:00000440       __imp__ReadFile@20         1008e440     kernel32:KERNEL32.dll
 0004:00000444       __imp__SetConsoleCtrlHandler@8 1008e444     kernel32:KERNEL32.dll
 0004:00000448       __imp__IsValidCodePage@4   1008e448     kernel32:KERNEL32.dll
 0004:0000044c       __imp__IsValidLocale@8     1008e44c     kernel32:KERNEL32.dll
 0004:00000450       __imp__EnumSystemLocalesA@8 1008e450     kernel32:KERNEL32.dll
 0004:00000454       __imp__GetUserDefaultLCID@0 1008e454     kernel32:KERNEL32.dll
 0004:00000458       __imp__GetDateFormatA@24   1008e458     kernel32:KERNEL32.dll
 0004:0000045c       __imp__GetStringTypeW@16   1008e45c     kernel32:KERNEL32.dll
 0004:00000460       __imp__GetStringTypeA@20   1008e460     kernel32:KERNEL32.dll
 0004:00000464       __imp__WideCharToMultiByte@32 1008e464     kernel32:KERNEL32.dll
 0004:00000468       __imp__InterlockedIncrement@4 1008e468     kernel32:KERNEL32.dll
 0004:0000046c       __imp__InterlockedDecrement@4 1008e46c     kernel32:KERNEL32.dll
 0004:00000470       __imp__InterlockedCompareExchange@12 1008e470     kernel32:KERNEL32.dll
 0004:00000474       __imp__InterlockedExchange@8 1008e474     kernel32:KERNEL32.dll
 0004:00000478       __imp__MultiByteToWideChar@24 1008e478     kernel32:KERNEL32.dll
 0004:0000047c       __imp__InitializeCriticalSection@4 1008e47c     kernel32:KERNEL32.dll
 0004:00000480       __imp__DeleteCriticalSection@4 1008e480     kernel32:KERNEL32.dll
 0004:00000484       __imp__EnterCriticalSection@4 1008e484     kernel32:KERNEL32.dll
 0004:00000488       __imp__LeaveCriticalSection@4 1008e488     kernel32:KERNEL32.dll
 0004:0000048c       __imp__SetLastError@4      1008e48c     kernel32:KERNEL32.dll
 0004:00000490       __imp__FlushInstructionCache@12 1008e490     kernel32:KERNEL32.dll
 0004:00000494       __imp__FreeLibrary@4       1008e494     kernel32:KERNEL32.dll
 0004:00000498       __imp__VirtualQuery@12     1008e498     kernel32:KERNEL32.dll
 0004:0000049c       __imp__GetLastError@0      1008e49c     kernel32:KERNEL32.dll
 0004:000004a0       __imp__HeapFree@12         1008e4a0     kernel32:KERNEL32.dll
 0004:000004a4       __imp__TerminateProcess@8  1008e4a4     kernel32:KERNEL32.dll
 0004:000004a8       __imp__UnhandledExceptionFilter@4 1008e4a8     kernel32:KERNEL32.dll
 0004:000004ac       __imp__SetUnhandledExceptionFilter@4 1008e4ac     kernel32:KERNEL32.dll
 0004:000004b0       __imp__IsDebuggerPresent@0 1008e4b0     kernel32:KERNEL32.dll
 0004:000004b4       __imp__RaiseException@16   1008e4b4     kernel32:KERNEL32.dll
 0004:000004b8       __imp__RtlUnwind@16        1008e4b8     kernel32:KERNEL32.dll
 0004:000004bc       __imp__GetCurrentThreadId@0 1008e4bc     kernel32:KERNEL32.dll
 0004:000004c0       __imp__GetCommandLineA@0   1008e4c0     kernel32:KERNEL32.dll
 0004:000004c4       __imp__GetVersionExA@4     1008e4c4     kernel32:KERNEL32.dll
 0004:000004c8       __imp__HeapAlloc@12        1008e4c8     kernel32:KERNEL32.dll
 0004:000004cc       __imp__GetProcessHeap@0    1008e4cc     kernel32:KERNEL32.dll
 0004:000004d0       __imp__LCMapStringA@24     1008e4d0     kernel32:KERNEL32.dll
 0004:000004d4       __imp__LCMapStringW@24     1008e4d4     kernel32:KERNEL32.dll
 0004:000004d8       __imp__GetCPInfo@8         1008e4d8     kernel32:KERNEL32.dll
 0004:000004dc       __imp__ExitProcess@4       1008e4dc     kernel32:KERNEL32.dll
 0004:000004e0       __imp__HeapDestroy@4       1008e4e0     kernel32:KERNEL32.dll
 0004:000004e4       __imp__HeapCreate@12       1008e4e4     kernel32:KERNEL32.dll
 0004:000004e8       __imp__VirtualFree@12      1008e4e8     kernel32:KERNEL32.dll
 0004:000004ec       __imp__FatalAppExitA@8     1008e4ec     kernel32:KERNEL32.dll
 0004:000004f0       __imp__VirtualAlloc@16     1008e4f0     kernel32:KERNEL32.dll
 0004:000004f4       __imp__HeapReAlloc@16      1008e4f4     kernel32:KERNEL32.dll
 0004:000004f8       __imp__GetACP@0            1008e4f8     kernel32:KERNEL32.dll
 0004:000004fc       __imp__GetOEMCP@0          1008e4fc     kernel32:KERNEL32.dll
 0004:00000500       __imp__TlsGetValue@4       1008e500     kernel32:KERNEL32.dll
 0004:00000504       __imp__TlsAlloc@0          1008e504     kernel32:KERNEL32.dll
 0004:00000508       __imp__TlsSetValue@8       1008e508     kernel32:KERNEL32.dll
 0004:0000050c       __imp__TlsFree@4           1008e50c     kernel32:KERNEL32.dll
 0004:00000510       __imp__GetCurrentThread@0  1008e510     kernel32:KERNEL32.dll
 0004:00000514       __imp__SetHandleCount@4    1008e514     kernel32:KERNEL32.dll
 0004:00000518       __imp__GetStdHandle@4      1008e518     kernel32:KERNEL32.dll
 0004:0000051c       __imp__GetFileType@4       1008e51c     kernel32:KERNEL32.dll
 0004:00000520       __imp__GetStartupInfoA@4   1008e520     kernel32:KERNEL32.dll
 0004:00000524       __imp__WriteFile@20        1008e524     kernel32:KERNEL32.dll
 0004:00000528       __imp__GetConsoleCP@0      1008e528     kernel32:KERNEL32.dll
 0004:0000052c       __imp__GetConsoleMode@8    1008e52c     kernel32:KERNEL32.dll
 0004:00000530       __imp__FlushFileBuffers@4  1008e530     kernel32:KERNEL32.dll
 0004:00000534       __imp__SetFilePointer@16   1008e534     kernel32:KERNEL32.dll
 0004:00000538       __imp__HeapSize@12         1008e538     kernel32:KERNEL32.dll
 0004:0000053c       __imp__GetModuleFileNameA@12 1008e53c     kernel32:KERNEL32.dll
 0004:00000540       __imp__FreeEnvironmentStringsA@4 1008e540     kernel32:KERNEL32.dll
 0004:00000544       __imp__GetEnvironmentStrings@0 1008e544     kernel32:KERNEL32.dll
 0004:00000548       __imp__FreeEnvironmentStringsW@4 1008e548     kernel32:KERNEL32.dll
 0004:0000054c       __imp__GetEnvironmentStringsW@0 1008e54c     kernel32:KERNEL32.dll
 0004:00000550       __imp__QueryPerformanceCounter@4 1008e550     kernel32:KERNEL32.dll
 0004:00000554       __imp__GetTickCount@0      1008e554     kernel32:KERNEL32.dll
 0004:00000558       __imp__GetCurrentProcessId@0 1008e558     kernel32:KERNEL32.dll
 0004:0000055c       __imp__GetSystemTimeAsFileTime@4 1008e55c     kernel32:KERNEL32.dll
 0004:00000560       __imp__GetLocaleInfoA@16   1008e560     kernel32:KERNEL32.dll
 0004:00000564       __imp__VirtualProtect@16   1008e564     kernel32:KERNEL32.dll
 0004:00000568       \177KERNEL32_NULL_THUNK_DATA 1008e568     kernel32:KERNEL32.dll
 0004:000005e4       __imp__GetCursorPos@4      1008e5e4     user32:USER32.dll
 0004:000005e8       __imp__mouse_event@20      1008e5e8     user32:USER32.dll
 0004:000005ec       __imp__RegisterClassExA@4  1008e5ec     user32:USER32.dll
 0004:000005f0       __imp__GetDesktopWindow@0  1008e5f0     user32:USER32.dll
 0004:000005f4       __imp__CreateWindowExA@48  1008e5f4     user32:USER32.dll
 0004:000005f8       __imp__DestroyWindow@4     1008e5f8     user32:USER32.dll
 0004:000005fc       __imp__DefWindowProcA@16   1008e5fc     user32:USER32.dll
 0004:00000600       __imp__MessageBoxA@16      1008e600     user32:USER32.dll
 0004:00000604       __imp__GetAsyncKeyState@4  1008e604     user32:USER32.dll
 0004:00000608       __imp__SetRect@20          1008e608     user32:USER32.dll
 0004:0000060c       \177USER32_NULL_THUNK_DATA 1008e60c     user32:USER32.dll
 0004:00000640       __imp__Direct3DCreate9@4   1008e640     d3d9:d3d9.dll
 0004:00000644       \177d3d9_NULL_THUNK_DATA   1008e644     d3d9:d3d9.dll
 0004:00000670       __imp__D3DXCreateTextureFromFileInMemory@16 1008e670     d3dx9:d3dx9_43.dll
 0004:00000674       __imp__D3DXAssembleShader@28 1008e674     d3dx9:d3dx9_43.dll
 0004:00000678       __imp__D3DXMatrixRotationYawPitchRoll@16 1008e678     d3dx9:d3dx9_43.dll
 0004:0000067c       __imp__D3DXVec3Normalize@8 1008e67c     d3dx9:d3dx9_43.dll
 0004:00000680       __imp__D3DXCreateFontA@48  1008e680     d3dx9:d3dx9_43.dll
 0004:00000684       __imp__D3DXMatrixTransformation2D@28 1008e684     d3dx9:d3dx9_43.dll
 0004:00000688       __imp__D3DXCreateLine@8    1008e688     d3dx9:d3dx9_43.dll
 0004:0000068c       __imp__D3DXMatrixMultiply@12 1008e68c     d3dx9:d3dx9_43.dll
 0004:00000690       \177d3dx9_43_NULL_THUNK_DATA 1008e690     d3dx9:d3dx9_43.dll

 entry point at        0001:000343f1


 Exports

  ordinal    name

        1    __imp__DirectInput8Create@20
